ARM GAS  C:\Users\ADMINI~1\AppData\Local\Temp\cc2Uyp30.s 			page 1


   1              		.cpu cortex-m0plus
   2              		.arch armv6s-m
   3              		.fpu softvfp
   4              		.eabi_attribute 20, 1
   5              		.eabi_attribute 21, 1
   6              		.eabi_attribute 23, 3
   7              		.eabi_attribute 24, 1
   8              		.eabi_attribute 25, 1
   9              		.eabi_attribute 26, 1
  10              		.eabi_attribute 30, 6
  11              		.eabi_attribute 34, 0
  12              		.eabi_attribute 18, 4
  13              		.file	"stm32g0xx_hal_pwr_ex.c"
  14              		.text
  15              	.Ltext0:
  16              		.cfi_sections	.debug_frame
  17              		.section	.rodata.CHANNEL_OFFSET_TAB,"a"
  18              		.align	2
  21              	CHANNEL_OFFSET_TAB:
  22 0000 081C3044 		.ascii	"\010\0340DXl\200"
  22      586C80
  23              		.section	.text.HAL_PWREx_EnableBatteryCharging,"ax",%progbits
  24              		.align	1
  25              		.global	HAL_PWREx_EnableBatteryCharging
  26              		.syntax unified
  27              		.code	16
  28              		.thumb_func
  30              	HAL_PWREx_EnableBatteryCharging:
  31              	.LFB363:
  32              		.file 1 "Drivers/STM32G0xx_HAL_Driver/Src/stm32g0xx_hal_pwr_ex.c"
   1:Drivers/STM32G0xx_HAL_Driver/Src/stm32g0xx_hal_pwr_ex.c **** /**
   2:Drivers/STM32G0xx_HAL_Driver/Src/stm32g0xx_hal_pwr_ex.c ****   ******************************************************************************
   3:Drivers/STM32G0xx_HAL_Driver/Src/stm32g0xx_hal_pwr_ex.c ****   * @file    stm32g0xx_hal_pwr_ex.c
   4:Drivers/STM32G0xx_HAL_Driver/Src/stm32g0xx_hal_pwr_ex.c ****   * @author  MCD Application Team
   5:Drivers/STM32G0xx_HAL_Driver/Src/stm32g0xx_hal_pwr_ex.c ****   * @brief   Extended PWR HAL module driver.
   6:Drivers/STM32G0xx_HAL_Driver/Src/stm32g0xx_hal_pwr_ex.c ****   *          This file provides firmware functions to manage the following
   7:Drivers/STM32G0xx_HAL_Driver/Src/stm32g0xx_hal_pwr_ex.c ****   *          functionalities of the Power Controller (PWR) peripheral:
   8:Drivers/STM32G0xx_HAL_Driver/Src/stm32g0xx_hal_pwr_ex.c ****   *           + Extended Initialization and de-initialization functions
   9:Drivers/STM32G0xx_HAL_Driver/Src/stm32g0xx_hal_pwr_ex.c ****   *           + Extended Peripheral Control functions
  10:Drivers/STM32G0xx_HAL_Driver/Src/stm32g0xx_hal_pwr_ex.c ****   *
  11:Drivers/STM32G0xx_HAL_Driver/Src/stm32g0xx_hal_pwr_ex.c ****   ******************************************************************************
  12:Drivers/STM32G0xx_HAL_Driver/Src/stm32g0xx_hal_pwr_ex.c ****   * @attention
  13:Drivers/STM32G0xx_HAL_Driver/Src/stm32g0xx_hal_pwr_ex.c ****   *
  14:Drivers/STM32G0xx_HAL_Driver/Src/stm32g0xx_hal_pwr_ex.c ****   * Copyright (c) 2018 STMicroelectronics.
  15:Drivers/STM32G0xx_HAL_Driver/Src/stm32g0xx_hal_pwr_ex.c ****   * All rights reserved.
  16:Drivers/STM32G0xx_HAL_Driver/Src/stm32g0xx_hal_pwr_ex.c ****   *
  17:Drivers/STM32G0xx_HAL_Driver/Src/stm32g0xx_hal_pwr_ex.c ****   * This software is licensed under terms that can be found in the LICENSE file
  18:Drivers/STM32G0xx_HAL_Driver/Src/stm32g0xx_hal_pwr_ex.c ****   * in the root directory of this software component.
  19:Drivers/STM32G0xx_HAL_Driver/Src/stm32g0xx_hal_pwr_ex.c ****   * If no LICENSE file comes with this software, it is provided AS-IS.
  20:Drivers/STM32G0xx_HAL_Driver/Src/stm32g0xx_hal_pwr_ex.c ****   *
  21:Drivers/STM32G0xx_HAL_Driver/Src/stm32g0xx_hal_pwr_ex.c ****   ******************************************************************************
  22:Drivers/STM32G0xx_HAL_Driver/Src/stm32g0xx_hal_pwr_ex.c ****   */
  23:Drivers/STM32G0xx_HAL_Driver/Src/stm32g0xx_hal_pwr_ex.c **** 
  24:Drivers/STM32G0xx_HAL_Driver/Src/stm32g0xx_hal_pwr_ex.c **** /* Includes ------------------------------------------------------------------*/
  25:Drivers/STM32G0xx_HAL_Driver/Src/stm32g0xx_hal_pwr_ex.c **** #include "stm32g0xx_hal.h"
  26:Drivers/STM32G0xx_HAL_Driver/Src/stm32g0xx_hal_pwr_ex.c **** 
  27:Drivers/STM32G0xx_HAL_Driver/Src/stm32g0xx_hal_pwr_ex.c **** /** @addtogroup STM32G0xx_HAL_Driver
ARM GAS  C:\Users\ADMINI~1\AppData\Local\Temp\cc2Uyp30.s 			page 2


  28:Drivers/STM32G0xx_HAL_Driver/Src/stm32g0xx_hal_pwr_ex.c ****   * @{
  29:Drivers/STM32G0xx_HAL_Driver/Src/stm32g0xx_hal_pwr_ex.c ****   */
  30:Drivers/STM32G0xx_HAL_Driver/Src/stm32g0xx_hal_pwr_ex.c **** 
  31:Drivers/STM32G0xx_HAL_Driver/Src/stm32g0xx_hal_pwr_ex.c **** /** @addtogroup PWREx
  32:Drivers/STM32G0xx_HAL_Driver/Src/stm32g0xx_hal_pwr_ex.c ****   * @{
  33:Drivers/STM32G0xx_HAL_Driver/Src/stm32g0xx_hal_pwr_ex.c ****   */
  34:Drivers/STM32G0xx_HAL_Driver/Src/stm32g0xx_hal_pwr_ex.c **** 
  35:Drivers/STM32G0xx_HAL_Driver/Src/stm32g0xx_hal_pwr_ex.c **** #ifdef HAL_PWR_MODULE_ENABLED
  36:Drivers/STM32G0xx_HAL_Driver/Src/stm32g0xx_hal_pwr_ex.c **** 
  37:Drivers/STM32G0xx_HAL_Driver/Src/stm32g0xx_hal_pwr_ex.c **** /* Private typedef -----------------------------------------------------------*/
  38:Drivers/STM32G0xx_HAL_Driver/Src/stm32g0xx_hal_pwr_ex.c **** /* Private define ------------------------------------------------------------*/
  39:Drivers/STM32G0xx_HAL_Driver/Src/stm32g0xx_hal_pwr_ex.c **** /** @defgroup PWR_Extended_Private_Defines PWR Extended Private Defines
  40:Drivers/STM32G0xx_HAL_Driver/Src/stm32g0xx_hal_pwr_ex.c ****   * @{
  41:Drivers/STM32G0xx_HAL_Driver/Src/stm32g0xx_hal_pwr_ex.c ****   */
  42:Drivers/STM32G0xx_HAL_Driver/Src/stm32g0xx_hal_pwr_ex.c **** 
  43:Drivers/STM32G0xx_HAL_Driver/Src/stm32g0xx_hal_pwr_ex.c **** #if defined(PWR_PVD_SUPPORT)
  44:Drivers/STM32G0xx_HAL_Driver/Src/stm32g0xx_hal_pwr_ex.c **** /** @defgroup PWR_PVD_Mode_Mask PWR PVD Mode Mask
  45:Drivers/STM32G0xx_HAL_Driver/Src/stm32g0xx_hal_pwr_ex.c ****   * @{
  46:Drivers/STM32G0xx_HAL_Driver/Src/stm32g0xx_hal_pwr_ex.c ****   */
  47:Drivers/STM32G0xx_HAL_Driver/Src/stm32g0xx_hal_pwr_ex.c **** #define PVD_MODE_IT           0x00010000U  /*!< Mask for interruption yielded
  48:Drivers/STM32G0xx_HAL_Driver/Src/stm32g0xx_hal_pwr_ex.c ****                                                 by PVD threshold crossing     */
  49:Drivers/STM32G0xx_HAL_Driver/Src/stm32g0xx_hal_pwr_ex.c **** #define PVD_MODE_EVT          0x00020000U  /*!< Mask for event yielded
  50:Drivers/STM32G0xx_HAL_Driver/Src/stm32g0xx_hal_pwr_ex.c ****                                                 by PVD threshold crossing     */
  51:Drivers/STM32G0xx_HAL_Driver/Src/stm32g0xx_hal_pwr_ex.c **** #define PVD_RISING_EDGE       0x00000001U  /*!< Mask for rising edge set as
  52:Drivers/STM32G0xx_HAL_Driver/Src/stm32g0xx_hal_pwr_ex.c ****                                                 PVD trigger                   */
  53:Drivers/STM32G0xx_HAL_Driver/Src/stm32g0xx_hal_pwr_ex.c **** #define PVD_FALLING_EDGE      0x00000002U  /*!< Mask for falling edge set as
  54:Drivers/STM32G0xx_HAL_Driver/Src/stm32g0xx_hal_pwr_ex.c ****                                                 PVD trigger                   */
  55:Drivers/STM32G0xx_HAL_Driver/Src/stm32g0xx_hal_pwr_ex.c **** /**
  56:Drivers/STM32G0xx_HAL_Driver/Src/stm32g0xx_hal_pwr_ex.c ****   * @}
  57:Drivers/STM32G0xx_HAL_Driver/Src/stm32g0xx_hal_pwr_ex.c ****   */
  58:Drivers/STM32G0xx_HAL_Driver/Src/stm32g0xx_hal_pwr_ex.c **** #endif /* PWR_PVD_SUPPORT */
  59:Drivers/STM32G0xx_HAL_Driver/Src/stm32g0xx_hal_pwr_ex.c **** 
  60:Drivers/STM32G0xx_HAL_Driver/Src/stm32g0xx_hal_pwr_ex.c **** /** @defgroup PWREx_TimeOut_Value  PWREx Flag Setting Time Out Value
  61:Drivers/STM32G0xx_HAL_Driver/Src/stm32g0xx_hal_pwr_ex.c ****   * @{
  62:Drivers/STM32G0xx_HAL_Driver/Src/stm32g0xx_hal_pwr_ex.c ****   */
  63:Drivers/STM32G0xx_HAL_Driver/Src/stm32g0xx_hal_pwr_ex.c **** #define PWR_REGLPF_SETTING_DELAY_6_US       6u  /*!< REGLPF should rise in about 5 us plus
  64:Drivers/STM32G0xx_HAL_Driver/Src/stm32g0xx_hal_pwr_ex.c ****                                                      2 APB clock. Taking in account max Sysclk at
  65:Drivers/STM32G0xx_HAL_Driver/Src/stm32g0xx_hal_pwr_ex.c ****                                                      2 MHz, and rounded to upper value */
  66:Drivers/STM32G0xx_HAL_Driver/Src/stm32g0xx_hal_pwr_ex.c **** 
  67:Drivers/STM32G0xx_HAL_Driver/Src/stm32g0xx_hal_pwr_ex.c **** #define PWR_VOSF_SETTING_DELAY_6_US         6u  /*!< VOSF should rise in about 5 us plus
  68:Drivers/STM32G0xx_HAL_Driver/Src/stm32g0xx_hal_pwr_ex.c ****                                                      2 APB clock. Taking in account max Sysclk at
  69:Drivers/STM32G0xx_HAL_Driver/Src/stm32g0xx_hal_pwr_ex.c ****                                                      16 MHz, and rounded to upper value */
  70:Drivers/STM32G0xx_HAL_Driver/Src/stm32g0xx_hal_pwr_ex.c **** /**
  71:Drivers/STM32G0xx_HAL_Driver/Src/stm32g0xx_hal_pwr_ex.c ****   * @}
  72:Drivers/STM32G0xx_HAL_Driver/Src/stm32g0xx_hal_pwr_ex.c ****   */
  73:Drivers/STM32G0xx_HAL_Driver/Src/stm32g0xx_hal_pwr_ex.c **** 
  74:Drivers/STM32G0xx_HAL_Driver/Src/stm32g0xx_hal_pwr_ex.c **** /** @defgroup PWREx_Gpio_Pin_Number  PWREx Gpio Pin Number
  75:Drivers/STM32G0xx_HAL_Driver/Src/stm32g0xx_hal_pwr_ex.c ****   * @{
  76:Drivers/STM32G0xx_HAL_Driver/Src/stm32g0xx_hal_pwr_ex.c ****   */
  77:Drivers/STM32G0xx_HAL_Driver/Src/stm32g0xx_hal_pwr_ex.c **** #define PWR_GPIO_PIN_NB                     16u  /*!< Number of gpio pin in bank */
  78:Drivers/STM32G0xx_HAL_Driver/Src/stm32g0xx_hal_pwr_ex.c **** /**
  79:Drivers/STM32G0xx_HAL_Driver/Src/stm32g0xx_hal_pwr_ex.c ****   * @}
  80:Drivers/STM32G0xx_HAL_Driver/Src/stm32g0xx_hal_pwr_ex.c ****   */
  81:Drivers/STM32G0xx_HAL_Driver/Src/stm32g0xx_hal_pwr_ex.c **** 
  82:Drivers/STM32G0xx_HAL_Driver/Src/stm32g0xx_hal_pwr_ex.c **** /**
  83:Drivers/STM32G0xx_HAL_Driver/Src/stm32g0xx_hal_pwr_ex.c ****   * @}
  84:Drivers/STM32G0xx_HAL_Driver/Src/stm32g0xx_hal_pwr_ex.c ****   */
ARM GAS  C:\Users\ADMINI~1\AppData\Local\Temp\cc2Uyp30.s 			page 3


  85:Drivers/STM32G0xx_HAL_Driver/Src/stm32g0xx_hal_pwr_ex.c **** 
  86:Drivers/STM32G0xx_HAL_Driver/Src/stm32g0xx_hal_pwr_ex.c **** /* Private macro -------------------------------------------------------------*/
  87:Drivers/STM32G0xx_HAL_Driver/Src/stm32g0xx_hal_pwr_ex.c **** /* Private variables ---------------------------------------------------------*/
  88:Drivers/STM32G0xx_HAL_Driver/Src/stm32g0xx_hal_pwr_ex.c **** /* Private function prototypes -----------------------------------------------*/
  89:Drivers/STM32G0xx_HAL_Driver/Src/stm32g0xx_hal_pwr_ex.c **** /* Exported functions --------------------------------------------------------*/
  90:Drivers/STM32G0xx_HAL_Driver/Src/stm32g0xx_hal_pwr_ex.c **** /** @addtogroup PWREx_Exported_Functions PWR Extended Exported Functions
  91:Drivers/STM32G0xx_HAL_Driver/Src/stm32g0xx_hal_pwr_ex.c ****   * @{
  92:Drivers/STM32G0xx_HAL_Driver/Src/stm32g0xx_hal_pwr_ex.c ****   */
  93:Drivers/STM32G0xx_HAL_Driver/Src/stm32g0xx_hal_pwr_ex.c **** 
  94:Drivers/STM32G0xx_HAL_Driver/Src/stm32g0xx_hal_pwr_ex.c **** /** @addtogroup PWREx_Exported_Functions_Group1 Extended Peripheral Control functions
  95:Drivers/STM32G0xx_HAL_Driver/Src/stm32g0xx_hal_pwr_ex.c ****   *  @brief   Extended Peripheral Control functions
  96:Drivers/STM32G0xx_HAL_Driver/Src/stm32g0xx_hal_pwr_ex.c ****   *
  97:Drivers/STM32G0xx_HAL_Driver/Src/stm32g0xx_hal_pwr_ex.c **** @verbatim
  98:Drivers/STM32G0xx_HAL_Driver/Src/stm32g0xx_hal_pwr_ex.c ****  ===============================================================================
  99:Drivers/STM32G0xx_HAL_Driver/Src/stm32g0xx_hal_pwr_ex.c ****   ##### Extended Peripheral Initialization and de-initialization functions #####
 100:Drivers/STM32G0xx_HAL_Driver/Src/stm32g0xx_hal_pwr_ex.c ****  ===============================================================================
 101:Drivers/STM32G0xx_HAL_Driver/Src/stm32g0xx_hal_pwr_ex.c ****     [..]
 102:Drivers/STM32G0xx_HAL_Driver/Src/stm32g0xx_hal_pwr_ex.c ****      *** PVD configuration ***
 103:Drivers/STM32G0xx_HAL_Driver/Src/stm32g0xx_hal_pwr_ex.c ****     =========================
 104:Drivers/STM32G0xx_HAL_Driver/Src/stm32g0xx_hal_pwr_ex.c ****     [..]
 105:Drivers/STM32G0xx_HAL_Driver/Src/stm32g0xx_hal_pwr_ex.c ****       (+) The PVD is used to monitor the VDD power supply by comparing it to a
 106:Drivers/STM32G0xx_HAL_Driver/Src/stm32g0xx_hal_pwr_ex.c ****           threshold selected by the PVD Level (PVDRT[2:0] & PVDFT[2:0] bits in
 107:Drivers/STM32G0xx_HAL_Driver/Src/stm32g0xx_hal_pwr_ex.c ****           PWR CR2 register).
 108:Drivers/STM32G0xx_HAL_Driver/Src/stm32g0xx_hal_pwr_ex.c ****       (+) PVDO flag is available to indicate if VDD/VDDA is higher or lower
 109:Drivers/STM32G0xx_HAL_Driver/Src/stm32g0xx_hal_pwr_ex.c ****           than the PVD threshold. This event is internally connected to the EXTI
 110:Drivers/STM32G0xx_HAL_Driver/Src/stm32g0xx_hal_pwr_ex.c ****           line 16 and can generate an interrupt if enabled.
 111:Drivers/STM32G0xx_HAL_Driver/Src/stm32g0xx_hal_pwr_ex.c ****       (+) The PVD is stopped in Standby & Shutdown mode.
 112:Drivers/STM32G0xx_HAL_Driver/Src/stm32g0xx_hal_pwr_ex.c **** 
 113:Drivers/STM32G0xx_HAL_Driver/Src/stm32g0xx_hal_pwr_ex.c ****      *** PVM configuration ***
 114:Drivers/STM32G0xx_HAL_Driver/Src/stm32g0xx_hal_pwr_ex.c ****     =========================
 115:Drivers/STM32G0xx_HAL_Driver/Src/stm32g0xx_hal_pwr_ex.c ****     [..]
 116:Drivers/STM32G0xx_HAL_Driver/Src/stm32g0xx_hal_pwr_ex.c **** 
 117:Drivers/STM32G0xx_HAL_Driver/Src/stm32g0xx_hal_pwr_ex.c **** @endverbatim
 118:Drivers/STM32G0xx_HAL_Driver/Src/stm32g0xx_hal_pwr_ex.c ****   * @{
 119:Drivers/STM32G0xx_HAL_Driver/Src/stm32g0xx_hal_pwr_ex.c ****   */
 120:Drivers/STM32G0xx_HAL_Driver/Src/stm32g0xx_hal_pwr_ex.c **** 
 121:Drivers/STM32G0xx_HAL_Driver/Src/stm32g0xx_hal_pwr_ex.c **** /**
 122:Drivers/STM32G0xx_HAL_Driver/Src/stm32g0xx_hal_pwr_ex.c ****   * @brief  Enable battery charging.
 123:Drivers/STM32G0xx_HAL_Driver/Src/stm32g0xx_hal_pwr_ex.c ****   * @note   When VDD is present, charge the external battery on VBAT through an
 124:Drivers/STM32G0xx_HAL_Driver/Src/stm32g0xx_hal_pwr_ex.c ****   *         internal resistor.
 125:Drivers/STM32G0xx_HAL_Driver/Src/stm32g0xx_hal_pwr_ex.c ****   * @param  ResistorSelection specifies the resistor impedance.
 126:Drivers/STM32G0xx_HAL_Driver/Src/stm32g0xx_hal_pwr_ex.c ****   *         This parameter can be one of the following values:
 127:Drivers/STM32G0xx_HAL_Driver/Src/stm32g0xx_hal_pwr_ex.c ****   *           @arg @ref PWR_BATTERY_CHARGING_RESISTOR_5     5 kOhms resistor
 128:Drivers/STM32G0xx_HAL_Driver/Src/stm32g0xx_hal_pwr_ex.c ****   *           @arg @ref PWR_BATTERY_CHARGING_RESISTOR_1_5 1.5 kOhms resistor
 129:Drivers/STM32G0xx_HAL_Driver/Src/stm32g0xx_hal_pwr_ex.c ****   * @retval None
 130:Drivers/STM32G0xx_HAL_Driver/Src/stm32g0xx_hal_pwr_ex.c ****   */
 131:Drivers/STM32G0xx_HAL_Driver/Src/stm32g0xx_hal_pwr_ex.c **** void HAL_PWREx_EnableBatteryCharging(uint32_t ResistorSelection)
 132:Drivers/STM32G0xx_HAL_Driver/Src/stm32g0xx_hal_pwr_ex.c **** {
  33              		.loc 1 132 1
  34              		.cfi_startproc
  35              		@ args = 0, pretend = 0, frame = 16
  36              		@ frame_needed = 1, uses_anonymous_args = 0
  37 0000 80B5     		push	{r7, lr}
  38              	.LCFI0:
  39              		.cfi_def_cfa_offset 8
  40              		.cfi_offset 7, -8
  41              		.cfi_offset 14, -4
ARM GAS  C:\Users\ADMINI~1\AppData\Local\Temp\cc2Uyp30.s 			page 4


  42 0002 84B0     		sub	sp, sp, #16
  43              	.LCFI1:
  44              		.cfi_def_cfa_offset 24
  45 0004 00AF     		add	r7, sp, #0
  46              	.LCFI2:
  47              		.cfi_def_cfa_register 7
  48 0006 7860     		str	r0, [r7, #4]
 133:Drivers/STM32G0xx_HAL_Driver/Src/stm32g0xx_hal_pwr_ex.c ****   uint32_t tmpreg;
 134:Drivers/STM32G0xx_HAL_Driver/Src/stm32g0xx_hal_pwr_ex.c ****   assert_param(IS_PWR_BATTERY_RESISTOR_SELECT(ResistorSelection));
 135:Drivers/STM32G0xx_HAL_Driver/Src/stm32g0xx_hal_pwr_ex.c **** 
 136:Drivers/STM32G0xx_HAL_Driver/Src/stm32g0xx_hal_pwr_ex.c ****   /* Specify resistor selection and enable battery charging */
 137:Drivers/STM32G0xx_HAL_Driver/Src/stm32g0xx_hal_pwr_ex.c ****   tmpreg = (PWR->CR4 & ~PWR_CR4_VBRS);
  49              		.loc 1 137 16
  50 0008 084B     		ldr	r3, .L2
  51 000a DB68     		ldr	r3, [r3, #12]
  52              		.loc 1 137 10
  53 000c 084A     		ldr	r2, .L2+4
  54 000e 1340     		ands	r3, r2
  55 0010 FB60     		str	r3, [r7, #12]
 138:Drivers/STM32G0xx_HAL_Driver/Src/stm32g0xx_hal_pwr_ex.c ****   PWR->CR4 = (tmpreg | ResistorSelection | PWR_CR4_VBE);
  56              		.loc 1 138 22
  57 0012 FA68     		ldr	r2, [r7, #12]
  58 0014 7B68     		ldr	r3, [r7, #4]
  59 0016 1A43     		orrs	r2, r3
  60              		.loc 1 138 6
  61 0018 044B     		ldr	r3, .L2
  62              		.loc 1 138 42
  63 001a 8021     		movs	r1, #128
  64 001c 4900     		lsls	r1, r1, #1
  65 001e 0A43     		orrs	r2, r1
  66              		.loc 1 138 12
  67 0020 DA60     		str	r2, [r3, #12]
 139:Drivers/STM32G0xx_HAL_Driver/Src/stm32g0xx_hal_pwr_ex.c **** }
  68              		.loc 1 139 1
  69 0022 C046     		nop
  70 0024 BD46     		mov	sp, r7
  71 0026 04B0     		add	sp, sp, #16
  72              		@ sp needed
  73 0028 80BD     		pop	{r7, pc}
  74              	.L3:
  75 002a C046     		.align	2
  76              	.L2:
  77 002c 00700040 		.word	1073770496
  78 0030 FFFDFFFF 		.word	-513
  79              		.cfi_endproc
  80              	.LFE363:
  82              		.section	.text.HAL_PWREx_DisableBatteryCharging,"ax",%progbits
  83              		.align	1
  84              		.global	HAL_PWREx_DisableBatteryCharging
  85              		.syntax unified
  86              		.code	16
  87              		.thumb_func
  89              	HAL_PWREx_DisableBatteryCharging:
  90              	.LFB364:
 140:Drivers/STM32G0xx_HAL_Driver/Src/stm32g0xx_hal_pwr_ex.c **** 
 141:Drivers/STM32G0xx_HAL_Driver/Src/stm32g0xx_hal_pwr_ex.c **** 
 142:Drivers/STM32G0xx_HAL_Driver/Src/stm32g0xx_hal_pwr_ex.c **** /**
ARM GAS  C:\Users\ADMINI~1\AppData\Local\Temp\cc2Uyp30.s 			page 5


 143:Drivers/STM32G0xx_HAL_Driver/Src/stm32g0xx_hal_pwr_ex.c ****   * @brief Disable battery charging.
 144:Drivers/STM32G0xx_HAL_Driver/Src/stm32g0xx_hal_pwr_ex.c ****   * @retval None
 145:Drivers/STM32G0xx_HAL_Driver/Src/stm32g0xx_hal_pwr_ex.c ****   */
 146:Drivers/STM32G0xx_HAL_Driver/Src/stm32g0xx_hal_pwr_ex.c **** void HAL_PWREx_DisableBatteryCharging(void)
 147:Drivers/STM32G0xx_HAL_Driver/Src/stm32g0xx_hal_pwr_ex.c **** {
  91              		.loc 1 147 1
  92              		.cfi_startproc
  93              		@ args = 0, pretend = 0, frame = 0
  94              		@ frame_needed = 1, uses_anonymous_args = 0
  95 0000 80B5     		push	{r7, lr}
  96              	.LCFI3:
  97              		.cfi_def_cfa_offset 8
  98              		.cfi_offset 7, -8
  99              		.cfi_offset 14, -4
 100 0002 00AF     		add	r7, sp, #0
 101              	.LCFI4:
 102              		.cfi_def_cfa_register 7
 148:Drivers/STM32G0xx_HAL_Driver/Src/stm32g0xx_hal_pwr_ex.c ****   CLEAR_BIT(PWR->CR4, PWR_CR4_VBE);
 103              		.loc 1 148 3
 104 0004 044B     		ldr	r3, .L5
 105 0006 DA68     		ldr	r2, [r3, #12]
 106 0008 034B     		ldr	r3, .L5
 107 000a 0449     		ldr	r1, .L5+4
 108 000c 0A40     		ands	r2, r1
 109 000e DA60     		str	r2, [r3, #12]
 149:Drivers/STM32G0xx_HAL_Driver/Src/stm32g0xx_hal_pwr_ex.c **** }
 110              		.loc 1 149 1
 111 0010 C046     		nop
 112 0012 BD46     		mov	sp, r7
 113              		@ sp needed
 114 0014 80BD     		pop	{r7, pc}
 115              	.L6:
 116 0016 C046     		.align	2
 117              	.L5:
 118 0018 00700040 		.word	1073770496
 119 001c FFFEFFFF 		.word	-257
 120              		.cfi_endproc
 121              	.LFE364:
 123              		.section	.text.HAL_PWREx_EnablePORMonitorSampling,"ax",%progbits
 124              		.align	1
 125              		.global	HAL_PWREx_EnablePORMonitorSampling
 126              		.syntax unified
 127              		.code	16
 128              		.thumb_func
 130              	HAL_PWREx_EnablePORMonitorSampling:
 131              	.LFB365:
 150:Drivers/STM32G0xx_HAL_Driver/Src/stm32g0xx_hal_pwr_ex.c **** 
 151:Drivers/STM32G0xx_HAL_Driver/Src/stm32g0xx_hal_pwr_ex.c **** #if defined(PWR_CR3_ENB_ULP)
 152:Drivers/STM32G0xx_HAL_Driver/Src/stm32g0xx_hal_pwr_ex.c **** /**
 153:Drivers/STM32G0xx_HAL_Driver/Src/stm32g0xx_hal_pwr_ex.c ****   * @brief  Enable POR Monitor sampling mode.
 154:Drivers/STM32G0xx_HAL_Driver/Src/stm32g0xx_hal_pwr_ex.c ****   * @note   When entering ultra low power modes (standby, shutdown) this feature
 155:Drivers/STM32G0xx_HAL_Driver/Src/stm32g0xx_hal_pwr_ex.c ****   *         can be enabled to reduce further consumption: Power On Reset monitor
 156:Drivers/STM32G0xx_HAL_Driver/Src/stm32g0xx_hal_pwr_ex.c ****   *         is then set in sampling mode, and no more in always on mode.
 157:Drivers/STM32G0xx_HAL_Driver/Src/stm32g0xx_hal_pwr_ex.c ****   * @retval None
 158:Drivers/STM32G0xx_HAL_Driver/Src/stm32g0xx_hal_pwr_ex.c ****   */
 159:Drivers/STM32G0xx_HAL_Driver/Src/stm32g0xx_hal_pwr_ex.c **** void HAL_PWREx_EnablePORMonitorSampling(void)
 160:Drivers/STM32G0xx_HAL_Driver/Src/stm32g0xx_hal_pwr_ex.c **** {
ARM GAS  C:\Users\ADMINI~1\AppData\Local\Temp\cc2Uyp30.s 			page 6


 132              		.loc 1 160 1
 133              		.cfi_startproc
 134              		@ args = 0, pretend = 0, frame = 0
 135              		@ frame_needed = 1, uses_anonymous_args = 0
 136 0000 80B5     		push	{r7, lr}
 137              	.LCFI5:
 138              		.cfi_def_cfa_offset 8
 139              		.cfi_offset 7, -8
 140              		.cfi_offset 14, -4
 141 0002 00AF     		add	r7, sp, #0
 142              	.LCFI6:
 143              		.cfi_def_cfa_register 7
 161:Drivers/STM32G0xx_HAL_Driver/Src/stm32g0xx_hal_pwr_ex.c ****   PWR->CR3 |= PWR_CR3_ENB_ULP;
 144              		.loc 1 161 12
 145 0004 044B     		ldr	r3, .L8
 146 0006 9A68     		ldr	r2, [r3, #8]
 147 0008 034B     		ldr	r3, .L8
 148 000a 8021     		movs	r1, #128
 149 000c 8900     		lsls	r1, r1, #2
 150 000e 0A43     		orrs	r2, r1
 151 0010 9A60     		str	r2, [r3, #8]
 162:Drivers/STM32G0xx_HAL_Driver/Src/stm32g0xx_hal_pwr_ex.c **** }
 152              		.loc 1 162 1
 153 0012 C046     		nop
 154 0014 BD46     		mov	sp, r7
 155              		@ sp needed
 156 0016 80BD     		pop	{r7, pc}
 157              	.L9:
 158              		.align	2
 159              	.L8:
 160 0018 00700040 		.word	1073770496
 161              		.cfi_endproc
 162              	.LFE365:
 164              		.section	.text.HAL_PWREx_DisablePORMonitorSampling,"ax",%progbits
 165              		.align	1
 166              		.global	HAL_PWREx_DisablePORMonitorSampling
 167              		.syntax unified
 168              		.code	16
 169              		.thumb_func
 171              	HAL_PWREx_DisablePORMonitorSampling:
 172              	.LFB366:
 163:Drivers/STM32G0xx_HAL_Driver/Src/stm32g0xx_hal_pwr_ex.c **** 
 164:Drivers/STM32G0xx_HAL_Driver/Src/stm32g0xx_hal_pwr_ex.c **** 
 165:Drivers/STM32G0xx_HAL_Driver/Src/stm32g0xx_hal_pwr_ex.c **** /**
 166:Drivers/STM32G0xx_HAL_Driver/Src/stm32g0xx_hal_pwr_ex.c ****   * @brief  Disable POR Monitor sampling mode.
 167:Drivers/STM32G0xx_HAL_Driver/Src/stm32g0xx_hal_pwr_ex.c ****   * @retval None
 168:Drivers/STM32G0xx_HAL_Driver/Src/stm32g0xx_hal_pwr_ex.c ****   */
 169:Drivers/STM32G0xx_HAL_Driver/Src/stm32g0xx_hal_pwr_ex.c **** void HAL_PWREx_DisablePORMonitorSampling(void)
 170:Drivers/STM32G0xx_HAL_Driver/Src/stm32g0xx_hal_pwr_ex.c **** {
 173              		.loc 1 170 1
 174              		.cfi_startproc
 175              		@ args = 0, pretend = 0, frame = 0
 176              		@ frame_needed = 1, uses_anonymous_args = 0
 177 0000 80B5     		push	{r7, lr}
 178              	.LCFI7:
 179              		.cfi_def_cfa_offset 8
 180              		.cfi_offset 7, -8
ARM GAS  C:\Users\ADMINI~1\AppData\Local\Temp\cc2Uyp30.s 			page 7


 181              		.cfi_offset 14, -4
 182 0002 00AF     		add	r7, sp, #0
 183              	.LCFI8:
 184              		.cfi_def_cfa_register 7
 171:Drivers/STM32G0xx_HAL_Driver/Src/stm32g0xx_hal_pwr_ex.c ****   PWR->CR3 &= ~PWR_CR3_ENB_ULP;
 185              		.loc 1 171 12
 186 0004 044B     		ldr	r3, .L11
 187 0006 9A68     		ldr	r2, [r3, #8]
 188 0008 034B     		ldr	r3, .L11
 189 000a 0449     		ldr	r1, .L11+4
 190 000c 0A40     		ands	r2, r1
 191 000e 9A60     		str	r2, [r3, #8]
 172:Drivers/STM32G0xx_HAL_Driver/Src/stm32g0xx_hal_pwr_ex.c **** }
 192              		.loc 1 172 1
 193 0010 C046     		nop
 194 0012 BD46     		mov	sp, r7
 195              		@ sp needed
 196 0014 80BD     		pop	{r7, pc}
 197              	.L12:
 198 0016 C046     		.align	2
 199              	.L11:
 200 0018 00700040 		.word	1073770496
 201 001c FFFDFFFF 		.word	-513
 202              		.cfi_endproc
 203              	.LFE366:
 205              		.section	.text.HAL_PWREx_ConfigPVD,"ax",%progbits
 206              		.align	1
 207              		.global	HAL_PWREx_ConfigPVD
 208              		.syntax unified
 209              		.code	16
 210              		.thumb_func
 212              	HAL_PWREx_ConfigPVD:
 213              	.LFB367:
 173:Drivers/STM32G0xx_HAL_Driver/Src/stm32g0xx_hal_pwr_ex.c **** #endif /* PWR_CR3_ENB_ULP */
 174:Drivers/STM32G0xx_HAL_Driver/Src/stm32g0xx_hal_pwr_ex.c **** 
 175:Drivers/STM32G0xx_HAL_Driver/Src/stm32g0xx_hal_pwr_ex.c **** #if defined(PWR_PVD_SUPPORT)
 176:Drivers/STM32G0xx_HAL_Driver/Src/stm32g0xx_hal_pwr_ex.c **** /**
 177:Drivers/STM32G0xx_HAL_Driver/Src/stm32g0xx_hal_pwr_ex.c ****   * @brief  Configure the Power Voltage Detector (PVD).
 178:Drivers/STM32G0xx_HAL_Driver/Src/stm32g0xx_hal_pwr_ex.c ****   * @param  sConfigPVD pointer to a PWR_PVDTypeDef structure that contains the
 179:Drivers/STM32G0xx_HAL_Driver/Src/stm32g0xx_hal_pwr_ex.c ****             PVD configuration information: threshold levels, operating mode.
 180:Drivers/STM32G0xx_HAL_Driver/Src/stm32g0xx_hal_pwr_ex.c ****   * @note   Refer to the electrical characteristics of your device datasheet for
 181:Drivers/STM32G0xx_HAL_Driver/Src/stm32g0xx_hal_pwr_ex.c ****   *         more details about the voltage thresholds corresponding to each
 182:Drivers/STM32G0xx_HAL_Driver/Src/stm32g0xx_hal_pwr_ex.c ****   *         detection level.
 183:Drivers/STM32G0xx_HAL_Driver/Src/stm32g0xx_hal_pwr_ex.c ****   * @note   User should take care that rising threshold is higher than falling
 184:Drivers/STM32G0xx_HAL_Driver/Src/stm32g0xx_hal_pwr_ex.c ****   *         one in order to avoid having always PVDO output set.
 185:Drivers/STM32G0xx_HAL_Driver/Src/stm32g0xx_hal_pwr_ex.c ****   * @retval HAL_OK
 186:Drivers/STM32G0xx_HAL_Driver/Src/stm32g0xx_hal_pwr_ex.c ****   */
 187:Drivers/STM32G0xx_HAL_Driver/Src/stm32g0xx_hal_pwr_ex.c **** HAL_StatusTypeDef HAL_PWREx_ConfigPVD(PWR_PVDTypeDef *sConfigPVD)
 188:Drivers/STM32G0xx_HAL_Driver/Src/stm32g0xx_hal_pwr_ex.c **** {
 214              		.loc 1 188 1
 215              		.cfi_startproc
 216              		@ args = 0, pretend = 0, frame = 8
 217              		@ frame_needed = 1, uses_anonymous_args = 0
 218 0000 80B5     		push	{r7, lr}
 219              	.LCFI9:
 220              		.cfi_def_cfa_offset 8
 221              		.cfi_offset 7, -8
ARM GAS  C:\Users\ADMINI~1\AppData\Local\Temp\cc2Uyp30.s 			page 8


 222              		.cfi_offset 14, -4
 223 0002 82B0     		sub	sp, sp, #8
 224              	.LCFI10:
 225              		.cfi_def_cfa_offset 16
 226 0004 00AF     		add	r7, sp, #0
 227              	.LCFI11:
 228              		.cfi_def_cfa_register 7
 229 0006 7860     		str	r0, [r7, #4]
 189:Drivers/STM32G0xx_HAL_Driver/Src/stm32g0xx_hal_pwr_ex.c ****   /* Check the parameters */
 190:Drivers/STM32G0xx_HAL_Driver/Src/stm32g0xx_hal_pwr_ex.c ****   assert_param(IS_PWR_PVD_LEVEL(sConfigPVD->PVDLevel));
 191:Drivers/STM32G0xx_HAL_Driver/Src/stm32g0xx_hal_pwr_ex.c ****   assert_param(IS_PWR_PVD_MODE(sConfigPVD->Mode));
 192:Drivers/STM32G0xx_HAL_Driver/Src/stm32g0xx_hal_pwr_ex.c **** 
 193:Drivers/STM32G0xx_HAL_Driver/Src/stm32g0xx_hal_pwr_ex.c ****   /* Set PVD level bits only according to PVDLevel value */
 194:Drivers/STM32G0xx_HAL_Driver/Src/stm32g0xx_hal_pwr_ex.c ****   MODIFY_REG(PWR->CR2, (PWR_CR2_PVDFT | PWR_CR2_PVDRT), sConfigPVD->PVDLevel);
 230              		.loc 1 194 3
 231 0008 304B     		ldr	r3, .L19
 232 000a 5B68     		ldr	r3, [r3, #4]
 233 000c 7E22     		movs	r2, #126
 234 000e 9343     		bics	r3, r2
 235 0010 1900     		movs	r1, r3
 236 0012 7B68     		ldr	r3, [r7, #4]
 237 0014 1A68     		ldr	r2, [r3]
 238 0016 2D4B     		ldr	r3, .L19
 239 0018 0A43     		orrs	r2, r1
 240 001a 5A60     		str	r2, [r3, #4]
 195:Drivers/STM32G0xx_HAL_Driver/Src/stm32g0xx_hal_pwr_ex.c **** 
 196:Drivers/STM32G0xx_HAL_Driver/Src/stm32g0xx_hal_pwr_ex.c ****   /* Clear any previous config, in case no event or IT mode is selected */
 197:Drivers/STM32G0xx_HAL_Driver/Src/stm32g0xx_hal_pwr_ex.c ****   __HAL_PWR_PVD_EXTI_DISABLE_EVENT();
 241              		.loc 1 197 3
 242 001c 2C4A     		ldr	r2, .L19+4
 243 001e 8423     		movs	r3, #132
 244 0020 D358     		ldr	r3, [r2, r3]
 245 0022 2B49     		ldr	r1, .L19+4
 246 0024 2B4A     		ldr	r2, .L19+8
 247 0026 1340     		ands	r3, r2
 248 0028 8422     		movs	r2, #132
 249 002a 8B50     		str	r3, [r1, r2]
 198:Drivers/STM32G0xx_HAL_Driver/Src/stm32g0xx_hal_pwr_ex.c ****   __HAL_PWR_PVD_EXTI_DISABLE_IT();
 250              		.loc 1 198 3
 251 002c 284A     		ldr	r2, .L19+4
 252 002e 8023     		movs	r3, #128
 253 0030 D358     		ldr	r3, [r2, r3]
 254 0032 2749     		ldr	r1, .L19+4
 255 0034 274A     		ldr	r2, .L19+8
 256 0036 1340     		ands	r3, r2
 257 0038 8022     		movs	r2, #128
 258 003a 8B50     		str	r3, [r1, r2]
 199:Drivers/STM32G0xx_HAL_Driver/Src/stm32g0xx_hal_pwr_ex.c ****   __HAL_PWR_PVD_EXTI_DISABLE_FALLING_EDGE();
 259              		.loc 1 199 3
 260 003c 244B     		ldr	r3, .L19+4
 261 003e 5A68     		ldr	r2, [r3, #4]
 262 0040 234B     		ldr	r3, .L19+4
 263 0042 2449     		ldr	r1, .L19+8
 264 0044 0A40     		ands	r2, r1
 265 0046 5A60     		str	r2, [r3, #4]
 200:Drivers/STM32G0xx_HAL_Driver/Src/stm32g0xx_hal_pwr_ex.c ****   __HAL_PWR_PVD_EXTI_DISABLE_RISING_EDGE();
 266              		.loc 1 200 3
ARM GAS  C:\Users\ADMINI~1\AppData\Local\Temp\cc2Uyp30.s 			page 9


 267 0048 214B     		ldr	r3, .L19+4
 268 004a 1A68     		ldr	r2, [r3]
 269 004c 204B     		ldr	r3, .L19+4
 270 004e 2149     		ldr	r1, .L19+8
 271 0050 0A40     		ands	r2, r1
 272 0052 1A60     		str	r2, [r3]
 201:Drivers/STM32G0xx_HAL_Driver/Src/stm32g0xx_hal_pwr_ex.c **** 
 202:Drivers/STM32G0xx_HAL_Driver/Src/stm32g0xx_hal_pwr_ex.c ****   /* Configure interrupt mode */
 203:Drivers/STM32G0xx_HAL_Driver/Src/stm32g0xx_hal_pwr_ex.c ****   if ((sConfigPVD->Mode & PVD_MODE_IT) == PVD_MODE_IT)
 273              		.loc 1 203 18
 274 0054 7B68     		ldr	r3, [r7, #4]
 275 0056 5A68     		ldr	r2, [r3, #4]
 276              		.loc 1 203 25
 277 0058 8023     		movs	r3, #128
 278 005a 5B02     		lsls	r3, r3, #9
 279 005c 1340     		ands	r3, r2
 280              		.loc 1 203 6
 281 005e 08D0     		beq	.L14
 204:Drivers/STM32G0xx_HAL_Driver/Src/stm32g0xx_hal_pwr_ex.c ****   {
 205:Drivers/STM32G0xx_HAL_Driver/Src/stm32g0xx_hal_pwr_ex.c ****     __HAL_PWR_PVD_EXTI_ENABLE_IT();
 282              		.loc 1 205 5
 283 0060 1B4A     		ldr	r2, .L19+4
 284 0062 8023     		movs	r3, #128
 285 0064 D358     		ldr	r3, [r2, r3]
 286 0066 1A49     		ldr	r1, .L19+4
 287 0068 8022     		movs	r2, #128
 288 006a 5202     		lsls	r2, r2, #9
 289 006c 1343     		orrs	r3, r2
 290 006e 8022     		movs	r2, #128
 291 0070 8B50     		str	r3, [r1, r2]
 292              	.L14:
 206:Drivers/STM32G0xx_HAL_Driver/Src/stm32g0xx_hal_pwr_ex.c ****   }
 207:Drivers/STM32G0xx_HAL_Driver/Src/stm32g0xx_hal_pwr_ex.c **** 
 208:Drivers/STM32G0xx_HAL_Driver/Src/stm32g0xx_hal_pwr_ex.c ****   /* Configure event mode */
 209:Drivers/STM32G0xx_HAL_Driver/Src/stm32g0xx_hal_pwr_ex.c ****   if ((sConfigPVD->Mode & PVD_MODE_EVT) == PVD_MODE_EVT)
 293              		.loc 1 209 18
 294 0072 7B68     		ldr	r3, [r7, #4]
 295 0074 5A68     		ldr	r2, [r3, #4]
 296              		.loc 1 209 25
 297 0076 8023     		movs	r3, #128
 298 0078 9B02     		lsls	r3, r3, #10
 299 007a 1340     		ands	r3, r2
 300              		.loc 1 209 6
 301 007c 08D0     		beq	.L15
 210:Drivers/STM32G0xx_HAL_Driver/Src/stm32g0xx_hal_pwr_ex.c ****   {
 211:Drivers/STM32G0xx_HAL_Driver/Src/stm32g0xx_hal_pwr_ex.c ****     __HAL_PWR_PVD_EXTI_ENABLE_EVENT();
 302              		.loc 1 211 5
 303 007e 144A     		ldr	r2, .L19+4
 304 0080 8423     		movs	r3, #132
 305 0082 D358     		ldr	r3, [r2, r3]
 306 0084 1249     		ldr	r1, .L19+4
 307 0086 8022     		movs	r2, #128
 308 0088 5202     		lsls	r2, r2, #9
 309 008a 1343     		orrs	r3, r2
 310 008c 8422     		movs	r2, #132
 311 008e 8B50     		str	r3, [r1, r2]
 312              	.L15:
ARM GAS  C:\Users\ADMINI~1\AppData\Local\Temp\cc2Uyp30.s 			page 10


 212:Drivers/STM32G0xx_HAL_Driver/Src/stm32g0xx_hal_pwr_ex.c ****   }
 213:Drivers/STM32G0xx_HAL_Driver/Src/stm32g0xx_hal_pwr_ex.c **** 
 214:Drivers/STM32G0xx_HAL_Driver/Src/stm32g0xx_hal_pwr_ex.c ****   /* Configure the edge */
 215:Drivers/STM32G0xx_HAL_Driver/Src/stm32g0xx_hal_pwr_ex.c ****   if ((sConfigPVD->Mode & PVD_RISING_EDGE) == PVD_RISING_EDGE)
 313              		.loc 1 215 18
 314 0090 7B68     		ldr	r3, [r7, #4]
 315 0092 5B68     		ldr	r3, [r3, #4]
 316              		.loc 1 215 25
 317 0094 0122     		movs	r2, #1
 318 0096 1340     		ands	r3, r2
 319              		.loc 1 215 6
 320 0098 06D0     		beq	.L16
 216:Drivers/STM32G0xx_HAL_Driver/Src/stm32g0xx_hal_pwr_ex.c ****   {
 217:Drivers/STM32G0xx_HAL_Driver/Src/stm32g0xx_hal_pwr_ex.c ****     __HAL_PWR_PVD_EXTI_ENABLE_RISING_EDGE();
 321              		.loc 1 217 5
 322 009a 0D4B     		ldr	r3, .L19+4
 323 009c 1A68     		ldr	r2, [r3]
 324 009e 0C4B     		ldr	r3, .L19+4
 325 00a0 8021     		movs	r1, #128
 326 00a2 4902     		lsls	r1, r1, #9
 327 00a4 0A43     		orrs	r2, r1
 328 00a6 1A60     		str	r2, [r3]
 329              	.L16:
 218:Drivers/STM32G0xx_HAL_Driver/Src/stm32g0xx_hal_pwr_ex.c ****   }
 219:Drivers/STM32G0xx_HAL_Driver/Src/stm32g0xx_hal_pwr_ex.c **** 
 220:Drivers/STM32G0xx_HAL_Driver/Src/stm32g0xx_hal_pwr_ex.c ****   if ((sConfigPVD->Mode & PVD_FALLING_EDGE) == PVD_FALLING_EDGE)
 330              		.loc 1 220 18
 331 00a8 7B68     		ldr	r3, [r7, #4]
 332 00aa 5B68     		ldr	r3, [r3, #4]
 333              		.loc 1 220 25
 334 00ac 0222     		movs	r2, #2
 335 00ae 1340     		ands	r3, r2
 336              		.loc 1 220 6
 337 00b0 06D0     		beq	.L17
 221:Drivers/STM32G0xx_HAL_Driver/Src/stm32g0xx_hal_pwr_ex.c ****   {
 222:Drivers/STM32G0xx_HAL_Driver/Src/stm32g0xx_hal_pwr_ex.c ****     __HAL_PWR_PVD_EXTI_ENABLE_FALLING_EDGE();
 338              		.loc 1 222 5
 339 00b2 074B     		ldr	r3, .L19+4
 340 00b4 5A68     		ldr	r2, [r3, #4]
 341 00b6 064B     		ldr	r3, .L19+4
 342 00b8 8021     		movs	r1, #128
 343 00ba 4902     		lsls	r1, r1, #9
 344 00bc 0A43     		orrs	r2, r1
 345 00be 5A60     		str	r2, [r3, #4]
 346              	.L17:
 223:Drivers/STM32G0xx_HAL_Driver/Src/stm32g0xx_hal_pwr_ex.c ****   }
 224:Drivers/STM32G0xx_HAL_Driver/Src/stm32g0xx_hal_pwr_ex.c **** 
 225:Drivers/STM32G0xx_HAL_Driver/Src/stm32g0xx_hal_pwr_ex.c ****   return HAL_OK;
 347              		.loc 1 225 10
 348 00c0 0023     		movs	r3, #0
 226:Drivers/STM32G0xx_HAL_Driver/Src/stm32g0xx_hal_pwr_ex.c **** }
 349              		.loc 1 226 1
 350 00c2 1800     		movs	r0, r3
 351 00c4 BD46     		mov	sp, r7
 352 00c6 02B0     		add	sp, sp, #8
 353              		@ sp needed
 354 00c8 80BD     		pop	{r7, pc}
ARM GAS  C:\Users\ADMINI~1\AppData\Local\Temp\cc2Uyp30.s 			page 11


 355              	.L20:
 356 00ca C046     		.align	2
 357              	.L19:
 358 00cc 00700040 		.word	1073770496
 359 00d0 00180240 		.word	1073879040
 360 00d4 FFFFFEFF 		.word	-65537
 361              		.cfi_endproc
 362              	.LFE367:
 364              		.section	.text.HAL_PWREx_EnablePVD,"ax",%progbits
 365              		.align	1
 366              		.global	HAL_PWREx_EnablePVD
 367              		.syntax unified
 368              		.code	16
 369              		.thumb_func
 371              	HAL_PWREx_EnablePVD:
 372              	.LFB368:
 227:Drivers/STM32G0xx_HAL_Driver/Src/stm32g0xx_hal_pwr_ex.c **** 
 228:Drivers/STM32G0xx_HAL_Driver/Src/stm32g0xx_hal_pwr_ex.c **** 
 229:Drivers/STM32G0xx_HAL_Driver/Src/stm32g0xx_hal_pwr_ex.c **** /**
 230:Drivers/STM32G0xx_HAL_Driver/Src/stm32g0xx_hal_pwr_ex.c ****   * @brief  Enable the Power Voltage Detector (PVD).
 231:Drivers/STM32G0xx_HAL_Driver/Src/stm32g0xx_hal_pwr_ex.c ****   * @retval None
 232:Drivers/STM32G0xx_HAL_Driver/Src/stm32g0xx_hal_pwr_ex.c ****   */
 233:Drivers/STM32G0xx_HAL_Driver/Src/stm32g0xx_hal_pwr_ex.c **** void HAL_PWREx_EnablePVD(void)
 234:Drivers/STM32G0xx_HAL_Driver/Src/stm32g0xx_hal_pwr_ex.c **** {
 373              		.loc 1 234 1
 374              		.cfi_startproc
 375              		@ args = 0, pretend = 0, frame = 0
 376              		@ frame_needed = 1, uses_anonymous_args = 0
 377 0000 80B5     		push	{r7, lr}
 378              	.LCFI12:
 379              		.cfi_def_cfa_offset 8
 380              		.cfi_offset 7, -8
 381              		.cfi_offset 14, -4
 382 0002 00AF     		add	r7, sp, #0
 383              	.LCFI13:
 384              		.cfi_def_cfa_register 7
 235:Drivers/STM32G0xx_HAL_Driver/Src/stm32g0xx_hal_pwr_ex.c ****   SET_BIT(PWR->CR2, PWR_CR2_PVDE);
 385              		.loc 1 235 3
 386 0004 044B     		ldr	r3, .L22
 387 0006 5A68     		ldr	r2, [r3, #4]
 388 0008 034B     		ldr	r3, .L22
 389 000a 0121     		movs	r1, #1
 390 000c 0A43     		orrs	r2, r1
 391 000e 5A60     		str	r2, [r3, #4]
 236:Drivers/STM32G0xx_HAL_Driver/Src/stm32g0xx_hal_pwr_ex.c **** }
 392              		.loc 1 236 1
 393 0010 C046     		nop
 394 0012 BD46     		mov	sp, r7
 395              		@ sp needed
 396 0014 80BD     		pop	{r7, pc}
 397              	.L23:
 398 0016 C046     		.align	2
 399              	.L22:
 400 0018 00700040 		.word	1073770496
 401              		.cfi_endproc
 402              	.LFE368:
 404              		.section	.text.HAL_PWREx_DisablePVD,"ax",%progbits
ARM GAS  C:\Users\ADMINI~1\AppData\Local\Temp\cc2Uyp30.s 			page 12


 405              		.align	1
 406              		.global	HAL_PWREx_DisablePVD
 407              		.syntax unified
 408              		.code	16
 409              		.thumb_func
 411              	HAL_PWREx_DisablePVD:
 412              	.LFB369:
 237:Drivers/STM32G0xx_HAL_Driver/Src/stm32g0xx_hal_pwr_ex.c **** 
 238:Drivers/STM32G0xx_HAL_Driver/Src/stm32g0xx_hal_pwr_ex.c **** 
 239:Drivers/STM32G0xx_HAL_Driver/Src/stm32g0xx_hal_pwr_ex.c **** /**
 240:Drivers/STM32G0xx_HAL_Driver/Src/stm32g0xx_hal_pwr_ex.c ****   * @brief  Disable the Power Voltage Detector (PVD).
 241:Drivers/STM32G0xx_HAL_Driver/Src/stm32g0xx_hal_pwr_ex.c ****   * @retval None
 242:Drivers/STM32G0xx_HAL_Driver/Src/stm32g0xx_hal_pwr_ex.c ****   */
 243:Drivers/STM32G0xx_HAL_Driver/Src/stm32g0xx_hal_pwr_ex.c **** void HAL_PWREx_DisablePVD(void)
 244:Drivers/STM32G0xx_HAL_Driver/Src/stm32g0xx_hal_pwr_ex.c **** {
 413              		.loc 1 244 1
 414              		.cfi_startproc
 415              		@ args = 0, pretend = 0, frame = 0
 416              		@ frame_needed = 1, uses_anonymous_args = 0
 417 0000 80B5     		push	{r7, lr}
 418              	.LCFI14:
 419              		.cfi_def_cfa_offset 8
 420              		.cfi_offset 7, -8
 421              		.cfi_offset 14, -4
 422 0002 00AF     		add	r7, sp, #0
 423              	.LCFI15:
 424              		.cfi_def_cfa_register 7
 245:Drivers/STM32G0xx_HAL_Driver/Src/stm32g0xx_hal_pwr_ex.c ****   CLEAR_BIT(PWR->CR2, PWR_CR2_PVDE);
 425              		.loc 1 245 3
 426 0004 044B     		ldr	r3, .L25
 427 0006 5A68     		ldr	r2, [r3, #4]
 428 0008 034B     		ldr	r3, .L25
 429 000a 0121     		movs	r1, #1
 430 000c 8A43     		bics	r2, r1
 431 000e 5A60     		str	r2, [r3, #4]
 246:Drivers/STM32G0xx_HAL_Driver/Src/stm32g0xx_hal_pwr_ex.c **** }
 432              		.loc 1 246 1
 433 0010 C046     		nop
 434 0012 BD46     		mov	sp, r7
 435              		@ sp needed
 436 0014 80BD     		pop	{r7, pc}
 437              	.L26:
 438 0016 C046     		.align	2
 439              	.L25:
 440 0018 00700040 		.word	1073770496
 441              		.cfi_endproc
 442              	.LFE369:
 444              		.section	.text.HAL_PWREx_EnableVddUSB,"ax",%progbits
 445              		.align	1
 446              		.global	HAL_PWREx_EnableVddUSB
 447              		.syntax unified
 448              		.code	16
 449              		.thumb_func
 451              	HAL_PWREx_EnableVddUSB:
 452              	.LFB370:
 247:Drivers/STM32G0xx_HAL_Driver/Src/stm32g0xx_hal_pwr_ex.c **** #endif /* PWR_PVD_SUPPORT */
 248:Drivers/STM32G0xx_HAL_Driver/Src/stm32g0xx_hal_pwr_ex.c **** 
ARM GAS  C:\Users\ADMINI~1\AppData\Local\Temp\cc2Uyp30.s 			page 13


 249:Drivers/STM32G0xx_HAL_Driver/Src/stm32g0xx_hal_pwr_ex.c **** #if defined(PWR_CR2_USV)
 250:Drivers/STM32G0xx_HAL_Driver/Src/stm32g0xx_hal_pwr_ex.c **** /**
 251:Drivers/STM32G0xx_HAL_Driver/Src/stm32g0xx_hal_pwr_ex.c ****   * @brief Enable VDDUSB supply.
 252:Drivers/STM32G0xx_HAL_Driver/Src/stm32g0xx_hal_pwr_ex.c ****   * @note  Remove VDDUSB electrical and logical isolation, once VDDUSB supply is present.
 253:Drivers/STM32G0xx_HAL_Driver/Src/stm32g0xx_hal_pwr_ex.c ****   * @retval None
 254:Drivers/STM32G0xx_HAL_Driver/Src/stm32g0xx_hal_pwr_ex.c ****   */
 255:Drivers/STM32G0xx_HAL_Driver/Src/stm32g0xx_hal_pwr_ex.c **** void HAL_PWREx_EnableVddUSB(void)
 256:Drivers/STM32G0xx_HAL_Driver/Src/stm32g0xx_hal_pwr_ex.c **** {
 453              		.loc 1 256 1
 454              		.cfi_startproc
 455              		@ args = 0, pretend = 0, frame = 0
 456              		@ frame_needed = 1, uses_anonymous_args = 0
 457 0000 80B5     		push	{r7, lr}
 458              	.LCFI16:
 459              		.cfi_def_cfa_offset 8
 460              		.cfi_offset 7, -8
 461              		.cfi_offset 14, -4
 462 0002 00AF     		add	r7, sp, #0
 463              	.LCFI17:
 464              		.cfi_def_cfa_register 7
 257:Drivers/STM32G0xx_HAL_Driver/Src/stm32g0xx_hal_pwr_ex.c ****   SET_BIT(PWR->CR2, PWR_CR2_USV);
 465              		.loc 1 257 3
 466 0004 044B     		ldr	r3, .L28
 467 0006 5A68     		ldr	r2, [r3, #4]
 468 0008 034B     		ldr	r3, .L28
 469 000a 8021     		movs	r1, #128
 470 000c C900     		lsls	r1, r1, #3
 471 000e 0A43     		orrs	r2, r1
 472 0010 5A60     		str	r2, [r3, #4]
 258:Drivers/STM32G0xx_HAL_Driver/Src/stm32g0xx_hal_pwr_ex.c **** }
 473              		.loc 1 258 1
 474 0012 C046     		nop
 475 0014 BD46     		mov	sp, r7
 476              		@ sp needed
 477 0016 80BD     		pop	{r7, pc}
 478              	.L29:
 479              		.align	2
 480              	.L28:
 481 0018 00700040 		.word	1073770496
 482              		.cfi_endproc
 483              	.LFE370:
 485              		.section	.text.HAL_PWREx_DisableVddUSB,"ax",%progbits
 486              		.align	1
 487              		.global	HAL_PWREx_DisableVddUSB
 488              		.syntax unified
 489              		.code	16
 490              		.thumb_func
 492              	HAL_PWREx_DisableVddUSB:
 493              	.LFB371:
 259:Drivers/STM32G0xx_HAL_Driver/Src/stm32g0xx_hal_pwr_ex.c **** 
 260:Drivers/STM32G0xx_HAL_Driver/Src/stm32g0xx_hal_pwr_ex.c **** /**
 261:Drivers/STM32G0xx_HAL_Driver/Src/stm32g0xx_hal_pwr_ex.c ****   * @brief Disable VDDUSB supply.
 262:Drivers/STM32G0xx_HAL_Driver/Src/stm32g0xx_hal_pwr_ex.c ****   * @retval None
 263:Drivers/STM32G0xx_HAL_Driver/Src/stm32g0xx_hal_pwr_ex.c ****   */
 264:Drivers/STM32G0xx_HAL_Driver/Src/stm32g0xx_hal_pwr_ex.c **** void HAL_PWREx_DisableVddUSB(void)
 265:Drivers/STM32G0xx_HAL_Driver/Src/stm32g0xx_hal_pwr_ex.c **** {
 494              		.loc 1 265 1
ARM GAS  C:\Users\ADMINI~1\AppData\Local\Temp\cc2Uyp30.s 			page 14


 495              		.cfi_startproc
 496              		@ args = 0, pretend = 0, frame = 0
 497              		@ frame_needed = 1, uses_anonymous_args = 0
 498 0000 80B5     		push	{r7, lr}
 499              	.LCFI18:
 500              		.cfi_def_cfa_offset 8
 501              		.cfi_offset 7, -8
 502              		.cfi_offset 14, -4
 503 0002 00AF     		add	r7, sp, #0
 504              	.LCFI19:
 505              		.cfi_def_cfa_register 7
 266:Drivers/STM32G0xx_HAL_Driver/Src/stm32g0xx_hal_pwr_ex.c ****   CLEAR_BIT(PWR->CR2, PWR_CR2_USV);
 506              		.loc 1 266 3
 507 0004 044B     		ldr	r3, .L31
 508 0006 5A68     		ldr	r2, [r3, #4]
 509 0008 034B     		ldr	r3, .L31
 510 000a 0449     		ldr	r1, .L31+4
 511 000c 0A40     		ands	r2, r1
 512 000e 5A60     		str	r2, [r3, #4]
 267:Drivers/STM32G0xx_HAL_Driver/Src/stm32g0xx_hal_pwr_ex.c **** }
 513              		.loc 1 267 1
 514 0010 C046     		nop
 515 0012 BD46     		mov	sp, r7
 516              		@ sp needed
 517 0014 80BD     		pop	{r7, pc}
 518              	.L32:
 519 0016 C046     		.align	2
 520              	.L31:
 521 0018 00700040 		.word	1073770496
 522 001c FFFBFFFF 		.word	-1025
 523              		.cfi_endproc
 524              	.LFE371:
 526              		.section	.text.HAL_PWREx_EnableVddIO2,"ax",%progbits
 527              		.align	1
 528              		.global	HAL_PWREx_EnableVddIO2
 529              		.syntax unified
 530              		.code	16
 531              		.thumb_func
 533              	HAL_PWREx_EnableVddIO2:
 534              	.LFB372:
 268:Drivers/STM32G0xx_HAL_Driver/Src/stm32g0xx_hal_pwr_ex.c **** #endif /* PWR_CR2_USV */
 269:Drivers/STM32G0xx_HAL_Driver/Src/stm32g0xx_hal_pwr_ex.c **** 
 270:Drivers/STM32G0xx_HAL_Driver/Src/stm32g0xx_hal_pwr_ex.c **** #if defined(PWR_CR2_IOSV)
 271:Drivers/STM32G0xx_HAL_Driver/Src/stm32g0xx_hal_pwr_ex.c **** /**
 272:Drivers/STM32G0xx_HAL_Driver/Src/stm32g0xx_hal_pwr_ex.c ****   * @brief Enable VDDIO2 supply.
 273:Drivers/STM32G0xx_HAL_Driver/Src/stm32g0xx_hal_pwr_ex.c ****   * @note  Remove VDDIO2 electrical and logical isolation, once VDDIO2 supply is present.
 274:Drivers/STM32G0xx_HAL_Driver/Src/stm32g0xx_hal_pwr_ex.c ****   * @retval None
 275:Drivers/STM32G0xx_HAL_Driver/Src/stm32g0xx_hal_pwr_ex.c ****   */
 276:Drivers/STM32G0xx_HAL_Driver/Src/stm32g0xx_hal_pwr_ex.c **** void HAL_PWREx_EnableVddIO2(void)
 277:Drivers/STM32G0xx_HAL_Driver/Src/stm32g0xx_hal_pwr_ex.c **** {
 535              		.loc 1 277 1
 536              		.cfi_startproc
 537              		@ args = 0, pretend = 0, frame = 0
 538              		@ frame_needed = 1, uses_anonymous_args = 0
 539 0000 80B5     		push	{r7, lr}
 540              	.LCFI20:
 541              		.cfi_def_cfa_offset 8
ARM GAS  C:\Users\ADMINI~1\AppData\Local\Temp\cc2Uyp30.s 			page 15


 542              		.cfi_offset 7, -8
 543              		.cfi_offset 14, -4
 544 0002 00AF     		add	r7, sp, #0
 545              	.LCFI21:
 546              		.cfi_def_cfa_register 7
 278:Drivers/STM32G0xx_HAL_Driver/Src/stm32g0xx_hal_pwr_ex.c ****   SET_BIT(PWR->CR2, PWR_CR2_IOSV);
 547              		.loc 1 278 3
 548 0004 044B     		ldr	r3, .L34
 549 0006 5A68     		ldr	r2, [r3, #4]
 550 0008 034B     		ldr	r3, .L34
 551 000a 8021     		movs	r1, #128
 552 000c 8900     		lsls	r1, r1, #2
 553 000e 0A43     		orrs	r2, r1
 554 0010 5A60     		str	r2, [r3, #4]
 279:Drivers/STM32G0xx_HAL_Driver/Src/stm32g0xx_hal_pwr_ex.c **** }
 555              		.loc 1 279 1
 556 0012 C046     		nop
 557 0014 BD46     		mov	sp, r7
 558              		@ sp needed
 559 0016 80BD     		pop	{r7, pc}
 560              	.L35:
 561              		.align	2
 562              	.L34:
 563 0018 00700040 		.word	1073770496
 564              		.cfi_endproc
 565              	.LFE372:
 567              		.section	.text.HAL_PWREx_DisableVddIO2,"ax",%progbits
 568              		.align	1
 569              		.global	HAL_PWREx_DisableVddIO2
 570              		.syntax unified
 571              		.code	16
 572              		.thumb_func
 574              	HAL_PWREx_DisableVddIO2:
 575              	.LFB373:
 280:Drivers/STM32G0xx_HAL_Driver/Src/stm32g0xx_hal_pwr_ex.c **** 
 281:Drivers/STM32G0xx_HAL_Driver/Src/stm32g0xx_hal_pwr_ex.c **** 
 282:Drivers/STM32G0xx_HAL_Driver/Src/stm32g0xx_hal_pwr_ex.c **** /**
 283:Drivers/STM32G0xx_HAL_Driver/Src/stm32g0xx_hal_pwr_ex.c ****   * @brief Disable VDDIO2 supply.
 284:Drivers/STM32G0xx_HAL_Driver/Src/stm32g0xx_hal_pwr_ex.c ****   * @retval None
 285:Drivers/STM32G0xx_HAL_Driver/Src/stm32g0xx_hal_pwr_ex.c ****   */
 286:Drivers/STM32G0xx_HAL_Driver/Src/stm32g0xx_hal_pwr_ex.c **** void HAL_PWREx_DisableVddIO2(void)
 287:Drivers/STM32G0xx_HAL_Driver/Src/stm32g0xx_hal_pwr_ex.c **** {
 576              		.loc 1 287 1
 577              		.cfi_startproc
 578              		@ args = 0, pretend = 0, frame = 0
 579              		@ frame_needed = 1, uses_anonymous_args = 0
 580 0000 80B5     		push	{r7, lr}
 581              	.LCFI22:
 582              		.cfi_def_cfa_offset 8
 583              		.cfi_offset 7, -8
 584              		.cfi_offset 14, -4
 585 0002 00AF     		add	r7, sp, #0
 586              	.LCFI23:
 587              		.cfi_def_cfa_register 7
 288:Drivers/STM32G0xx_HAL_Driver/Src/stm32g0xx_hal_pwr_ex.c ****   CLEAR_BIT(PWR->CR2, PWR_CR2_IOSV);
 588              		.loc 1 288 3
 589 0004 044B     		ldr	r3, .L37
ARM GAS  C:\Users\ADMINI~1\AppData\Local\Temp\cc2Uyp30.s 			page 16


 590 0006 5A68     		ldr	r2, [r3, #4]
 591 0008 034B     		ldr	r3, .L37
 592 000a 0449     		ldr	r1, .L37+4
 593 000c 0A40     		ands	r2, r1
 594 000e 5A60     		str	r2, [r3, #4]
 289:Drivers/STM32G0xx_HAL_Driver/Src/stm32g0xx_hal_pwr_ex.c **** }
 595              		.loc 1 289 1
 596 0010 C046     		nop
 597 0012 BD46     		mov	sp, r7
 598              		@ sp needed
 599 0014 80BD     		pop	{r7, pc}
 600              	.L38:
 601 0016 C046     		.align	2
 602              	.L37:
 603 0018 00700040 		.word	1073770496
 604 001c FFFDFFFF 		.word	-513
 605              		.cfi_endproc
 606              	.LFE373:
 608              		.section	.text.HAL_PWREx_EnablePVMUSB,"ax",%progbits
 609              		.align	1
 610              		.global	HAL_PWREx_EnablePVMUSB
 611              		.syntax unified
 612              		.code	16
 613              		.thumb_func
 615              	HAL_PWREx_EnablePVMUSB:
 616              	.LFB374:
 290:Drivers/STM32G0xx_HAL_Driver/Src/stm32g0xx_hal_pwr_ex.c **** #endif /* PWR_CR2_IOSV */
 291:Drivers/STM32G0xx_HAL_Driver/Src/stm32g0xx_hal_pwr_ex.c **** 
 292:Drivers/STM32G0xx_HAL_Driver/Src/stm32g0xx_hal_pwr_ex.c **** #if defined (PWR_PVM_SUPPORT)
 293:Drivers/STM32G0xx_HAL_Driver/Src/stm32g0xx_hal_pwr_ex.c **** /**
 294:Drivers/STM32G0xx_HAL_Driver/Src/stm32g0xx_hal_pwr_ex.c ****   * @brief Enable the Power Voltage Monitoring for USB peripheral (power domain Vddio2)
 295:Drivers/STM32G0xx_HAL_Driver/Src/stm32g0xx_hal_pwr_ex.c ****   * @retval None
 296:Drivers/STM32G0xx_HAL_Driver/Src/stm32g0xx_hal_pwr_ex.c ****   */
 297:Drivers/STM32G0xx_HAL_Driver/Src/stm32g0xx_hal_pwr_ex.c **** void HAL_PWREx_EnablePVMUSB(void)
 298:Drivers/STM32G0xx_HAL_Driver/Src/stm32g0xx_hal_pwr_ex.c **** {
 617              		.loc 1 298 1
 618              		.cfi_startproc
 619              		@ args = 0, pretend = 0, frame = 0
 620              		@ frame_needed = 1, uses_anonymous_args = 0
 621 0000 80B5     		push	{r7, lr}
 622              	.LCFI24:
 623              		.cfi_def_cfa_offset 8
 624              		.cfi_offset 7, -8
 625              		.cfi_offset 14, -4
 626 0002 00AF     		add	r7, sp, #0
 627              	.LCFI25:
 628              		.cfi_def_cfa_register 7
 299:Drivers/STM32G0xx_HAL_Driver/Src/stm32g0xx_hal_pwr_ex.c ****   SET_BIT(PWR->CR2, PWR_PVM_USB);
 629              		.loc 1 299 3
 630 0004 044B     		ldr	r3, .L40
 631 0006 5A68     		ldr	r2, [r3, #4]
 632 0008 034B     		ldr	r3, .L40
 633 000a 8021     		movs	r1, #128
 634 000c 4900     		lsls	r1, r1, #1
 635 000e 0A43     		orrs	r2, r1
 636 0010 5A60     		str	r2, [r3, #4]
 300:Drivers/STM32G0xx_HAL_Driver/Src/stm32g0xx_hal_pwr_ex.c **** }
ARM GAS  C:\Users\ADMINI~1\AppData\Local\Temp\cc2Uyp30.s 			page 17


 637              		.loc 1 300 1
 638 0012 C046     		nop
 639 0014 BD46     		mov	sp, r7
 640              		@ sp needed
 641 0016 80BD     		pop	{r7, pc}
 642              	.L41:
 643              		.align	2
 644              	.L40:
 645 0018 00700040 		.word	1073770496
 646              		.cfi_endproc
 647              	.LFE374:
 649              		.section	.text.HAL_PWREx_DisablePVMUSB,"ax",%progbits
 650              		.align	1
 651              		.global	HAL_PWREx_DisablePVMUSB
 652              		.syntax unified
 653              		.code	16
 654              		.thumb_func
 656              	HAL_PWREx_DisablePVMUSB:
 657              	.LFB375:
 301:Drivers/STM32G0xx_HAL_Driver/Src/stm32g0xx_hal_pwr_ex.c **** 
 302:Drivers/STM32G0xx_HAL_Driver/Src/stm32g0xx_hal_pwr_ex.c **** /**
 303:Drivers/STM32G0xx_HAL_Driver/Src/stm32g0xx_hal_pwr_ex.c ****   * @brief Disable the Power Voltage Monitoring for USB peripheral (power domain Vddio2)
 304:Drivers/STM32G0xx_HAL_Driver/Src/stm32g0xx_hal_pwr_ex.c ****   * @retval None
 305:Drivers/STM32G0xx_HAL_Driver/Src/stm32g0xx_hal_pwr_ex.c ****   */
 306:Drivers/STM32G0xx_HAL_Driver/Src/stm32g0xx_hal_pwr_ex.c **** void HAL_PWREx_DisablePVMUSB(void)
 307:Drivers/STM32G0xx_HAL_Driver/Src/stm32g0xx_hal_pwr_ex.c **** {
 658              		.loc 1 307 1
 659              		.cfi_startproc
 660              		@ args = 0, pretend = 0, frame = 0
 661              		@ frame_needed = 1, uses_anonymous_args = 0
 662 0000 80B5     		push	{r7, lr}
 663              	.LCFI26:
 664              		.cfi_def_cfa_offset 8
 665              		.cfi_offset 7, -8
 666              		.cfi_offset 14, -4
 667 0002 00AF     		add	r7, sp, #0
 668              	.LCFI27:
 669              		.cfi_def_cfa_register 7
 308:Drivers/STM32G0xx_HAL_Driver/Src/stm32g0xx_hal_pwr_ex.c ****   CLEAR_BIT(PWR->CR2, PWR_PVM_USB);
 670              		.loc 1 308 3
 671 0004 044B     		ldr	r3, .L43
 672 0006 5A68     		ldr	r2, [r3, #4]
 673 0008 034B     		ldr	r3, .L43
 674 000a 0449     		ldr	r1, .L43+4
 675 000c 0A40     		ands	r2, r1
 676 000e 5A60     		str	r2, [r3, #4]
 309:Drivers/STM32G0xx_HAL_Driver/Src/stm32g0xx_hal_pwr_ex.c **** }
 677              		.loc 1 309 1
 678 0010 C046     		nop
 679 0012 BD46     		mov	sp, r7
 680              		@ sp needed
 681 0014 80BD     		pop	{r7, pc}
 682              	.L44:
 683 0016 C046     		.align	2
 684              	.L43:
 685 0018 00700040 		.word	1073770496
 686 001c FFFEFFFF 		.word	-257
ARM GAS  C:\Users\ADMINI~1\AppData\Local\Temp\cc2Uyp30.s 			page 18


 687              		.cfi_endproc
 688              	.LFE375:
 690              		.section	.text.HAL_PWREx_ConfigPVM,"ax",%progbits
 691              		.align	1
 692              		.global	HAL_PWREx_ConfigPVM
 693              		.syntax unified
 694              		.code	16
 695              		.thumb_func
 697              	HAL_PWREx_ConfigPVM:
 698              	.LFB376:
 310:Drivers/STM32G0xx_HAL_Driver/Src/stm32g0xx_hal_pwr_ex.c **** #endif /* PWR_PVM_SUPPORT */
 311:Drivers/STM32G0xx_HAL_Driver/Src/stm32g0xx_hal_pwr_ex.c **** 
 312:Drivers/STM32G0xx_HAL_Driver/Src/stm32g0xx_hal_pwr_ex.c **** #if defined(PWR_PVM_SUPPORT)
 313:Drivers/STM32G0xx_HAL_Driver/Src/stm32g0xx_hal_pwr_ex.c **** /**
 314:Drivers/STM32G0xx_HAL_Driver/Src/stm32g0xx_hal_pwr_ex.c ****   * @brief Configure the Peripheral Voltage Monitoring (PVM).
 315:Drivers/STM32G0xx_HAL_Driver/Src/stm32g0xx_hal_pwr_ex.c ****   * @param sConfigPVM: pointer to a PWR_PVMTypeDef structure that contains the
 316:Drivers/STM32G0xx_HAL_Driver/Src/stm32g0xx_hal_pwr_ex.c ****   *        PVM configuration information.
 317:Drivers/STM32G0xx_HAL_Driver/Src/stm32g0xx_hal_pwr_ex.c ****   * @note The API configures a single PVM according to the information contained
 318:Drivers/STM32G0xx_HAL_Driver/Src/stm32g0xx_hal_pwr_ex.c ****   *       in the input structure. To configure several PVMs, the API must be singly
 319:Drivers/STM32G0xx_HAL_Driver/Src/stm32g0xx_hal_pwr_ex.c ****   *       called for each PVM used.
 320:Drivers/STM32G0xx_HAL_Driver/Src/stm32g0xx_hal_pwr_ex.c ****   * @note Refer to the electrical characteristics of your device datasheet for
 321:Drivers/STM32G0xx_HAL_Driver/Src/stm32g0xx_hal_pwr_ex.c ****   *         more details about the voltage thresholds corresponding to each
 322:Drivers/STM32G0xx_HAL_Driver/Src/stm32g0xx_hal_pwr_ex.c ****   *         detection level and to each monitored supply.
 323:Drivers/STM32G0xx_HAL_Driver/Src/stm32g0xx_hal_pwr_ex.c ****   * @retval HAL status
 324:Drivers/STM32G0xx_HAL_Driver/Src/stm32g0xx_hal_pwr_ex.c ****   */
 325:Drivers/STM32G0xx_HAL_Driver/Src/stm32g0xx_hal_pwr_ex.c **** HAL_StatusTypeDef HAL_PWREx_ConfigPVM(PWR_PVMTypeDef *sConfigPVM)
 326:Drivers/STM32G0xx_HAL_Driver/Src/stm32g0xx_hal_pwr_ex.c **** {
 699              		.loc 1 326 1
 700              		.cfi_startproc
 701              		@ args = 0, pretend = 0, frame = 16
 702              		@ frame_needed = 1, uses_anonymous_args = 0
 703 0000 80B5     		push	{r7, lr}
 704              	.LCFI28:
 705              		.cfi_def_cfa_offset 8
 706              		.cfi_offset 7, -8
 707              		.cfi_offset 14, -4
 708 0002 84B0     		sub	sp, sp, #16
 709              	.LCFI29:
 710              		.cfi_def_cfa_offset 24
 711 0004 00AF     		add	r7, sp, #0
 712              	.LCFI30:
 713              		.cfi_def_cfa_register 7
 714 0006 7860     		str	r0, [r7, #4]
 327:Drivers/STM32G0xx_HAL_Driver/Src/stm32g0xx_hal_pwr_ex.c ****   HAL_StatusTypeDef status = HAL_OK;
 715              		.loc 1 327 21
 716 0008 0F23     		movs	r3, #15
 717 000a FB18     		adds	r3, r7, r3
 718 000c 0022     		movs	r2, #0
 719 000e 1A70     		strb	r2, [r3]
 328:Drivers/STM32G0xx_HAL_Driver/Src/stm32g0xx_hal_pwr_ex.c **** 
 329:Drivers/STM32G0xx_HAL_Driver/Src/stm32g0xx_hal_pwr_ex.c ****   /* Check the parameters */
 330:Drivers/STM32G0xx_HAL_Driver/Src/stm32g0xx_hal_pwr_ex.c ****   assert_param(IS_PWR_PVM_TYPE(sConfigPVM->PVMType));
 331:Drivers/STM32G0xx_HAL_Driver/Src/stm32g0xx_hal_pwr_ex.c ****   assert_param(IS_PWR_PVM_MODE(sConfigPVM->Mode));
 332:Drivers/STM32G0xx_HAL_Driver/Src/stm32g0xx_hal_pwr_ex.c **** 
 333:Drivers/STM32G0xx_HAL_Driver/Src/stm32g0xx_hal_pwr_ex.c ****   /* Configure EXTI 34 interrupts if so required:
 334:Drivers/STM32G0xx_HAL_Driver/Src/stm32g0xx_hal_pwr_ex.c ****      scan through PVMType to detect which PVMx is set and
 335:Drivers/STM32G0xx_HAL_Driver/Src/stm32g0xx_hal_pwr_ex.c ****      configure the corresponding EXTI line accordingly. */
ARM GAS  C:\Users\ADMINI~1\AppData\Local\Temp\cc2Uyp30.s 			page 19


 336:Drivers/STM32G0xx_HAL_Driver/Src/stm32g0xx_hal_pwr_ex.c ****   switch (sConfigPVM->PVMType)
 720              		.loc 1 336 21
 721 0010 7B68     		ldr	r3, [r7, #4]
 722 0012 1A68     		ldr	r2, [r3]
 723              		.loc 1 336 3
 724 0014 8023     		movs	r3, #128
 725 0016 5B00     		lsls	r3, r3, #1
 726 0018 9A42     		cmp	r2, r3
 727 001a 4ED1     		bne	.L46
 337:Drivers/STM32G0xx_HAL_Driver/Src/stm32g0xx_hal_pwr_ex.c ****   {
 338:Drivers/STM32G0xx_HAL_Driver/Src/stm32g0xx_hal_pwr_ex.c ****     case PWR_PVM_USB:
 339:Drivers/STM32G0xx_HAL_Driver/Src/stm32g0xx_hal_pwr_ex.c ****       /* Clear any previous config. Keep it clear if no event or IT mode is selected */
 340:Drivers/STM32G0xx_HAL_Driver/Src/stm32g0xx_hal_pwr_ex.c ****       __HAL_PWR_PVM_EXTI_DISABLE_EVENT();
 728              		.loc 1 340 7
 729 001c 2D4A     		ldr	r2, .L54
 730 001e 9423     		movs	r3, #148
 731 0020 D358     		ldr	r3, [r2, r3]
 732 0022 2C49     		ldr	r1, .L54
 733 0024 0422     		movs	r2, #4
 734 0026 9343     		bics	r3, r2
 735 0028 9422     		movs	r2, #148
 736 002a 8B50     		str	r3, [r1, r2]
 341:Drivers/STM32G0xx_HAL_Driver/Src/stm32g0xx_hal_pwr_ex.c ****       __HAL_PWR_PVM_EXTI_DISABLE_IT();
 737              		.loc 1 341 7
 738 002c 294A     		ldr	r2, .L54
 739 002e 9023     		movs	r3, #144
 740 0030 D358     		ldr	r3, [r2, r3]
 741 0032 2849     		ldr	r1, .L54
 742 0034 0422     		movs	r2, #4
 743 0036 9343     		bics	r3, r2
 744 0038 9022     		movs	r2, #144
 745 003a 8B50     		str	r3, [r1, r2]
 342:Drivers/STM32G0xx_HAL_Driver/Src/stm32g0xx_hal_pwr_ex.c ****       __HAL_PWR_PVM_EXTI_DISABLE_FALLING_EDGE();
 746              		.loc 1 342 7
 747 003c 254B     		ldr	r3, .L54
 748 003e 5A6A     		ldr	r2, [r3, #36]
 749 0040 244B     		ldr	r3, .L54
 750 0042 0421     		movs	r1, #4
 751 0044 8A43     		bics	r2, r1
 752 0046 5A62     		str	r2, [r3, #36]
 343:Drivers/STM32G0xx_HAL_Driver/Src/stm32g0xx_hal_pwr_ex.c ****       __HAL_PWR_PVM_EXTI_DISABLE_RISING_EDGE();
 753              		.loc 1 343 7
 754 0048 224B     		ldr	r3, .L54
 755 004a 1A6A     		ldr	r2, [r3, #32]
 756 004c 214B     		ldr	r3, .L54
 757 004e 0421     		movs	r1, #4
 758 0050 8A43     		bics	r2, r1
 759 0052 1A62     		str	r2, [r3, #32]
 344:Drivers/STM32G0xx_HAL_Driver/Src/stm32g0xx_hal_pwr_ex.c **** 
 345:Drivers/STM32G0xx_HAL_Driver/Src/stm32g0xx_hal_pwr_ex.c ****       /* Configure interrupt mode */
 346:Drivers/STM32G0xx_HAL_Driver/Src/stm32g0xx_hal_pwr_ex.c ****       if ((sConfigPVM->Mode & PVM_MODE_IT) == PVM_MODE_IT)
 760              		.loc 1 346 22
 761 0054 7B68     		ldr	r3, [r7, #4]
 762 0056 5A68     		ldr	r2, [r3, #4]
 763              		.loc 1 346 29
 764 0058 8023     		movs	r3, #128
 765 005a 5B02     		lsls	r3, r3, #9
ARM GAS  C:\Users\ADMINI~1\AppData\Local\Temp\cc2Uyp30.s 			page 20


 766 005c 1340     		ands	r3, r2
 767              		.loc 1 346 10
 768 005e 07D0     		beq	.L47
 347:Drivers/STM32G0xx_HAL_Driver/Src/stm32g0xx_hal_pwr_ex.c ****       {
 348:Drivers/STM32G0xx_HAL_Driver/Src/stm32g0xx_hal_pwr_ex.c ****         __HAL_PWR_PVM_EXTI_ENABLE_IT();
 769              		.loc 1 348 9
 770 0060 1C4A     		ldr	r2, .L54
 771 0062 9023     		movs	r3, #144
 772 0064 D358     		ldr	r3, [r2, r3]
 773 0066 1B49     		ldr	r1, .L54
 774 0068 0422     		movs	r2, #4
 775 006a 1343     		orrs	r3, r2
 776 006c 9022     		movs	r2, #144
 777 006e 8B50     		str	r3, [r1, r2]
 778              	.L47:
 349:Drivers/STM32G0xx_HAL_Driver/Src/stm32g0xx_hal_pwr_ex.c ****       }
 350:Drivers/STM32G0xx_HAL_Driver/Src/stm32g0xx_hal_pwr_ex.c **** 
 351:Drivers/STM32G0xx_HAL_Driver/Src/stm32g0xx_hal_pwr_ex.c ****       /* Configure event mode */
 352:Drivers/STM32G0xx_HAL_Driver/Src/stm32g0xx_hal_pwr_ex.c ****       if ((sConfigPVM->Mode & PVM_MODE_EVT) == PVM_MODE_EVT)
 779              		.loc 1 352 22
 780 0070 7B68     		ldr	r3, [r7, #4]
 781 0072 5A68     		ldr	r2, [r3, #4]
 782              		.loc 1 352 29
 783 0074 8023     		movs	r3, #128
 784 0076 9B02     		lsls	r3, r3, #10
 785 0078 1340     		ands	r3, r2
 786              		.loc 1 352 10
 787 007a 07D0     		beq	.L48
 353:Drivers/STM32G0xx_HAL_Driver/Src/stm32g0xx_hal_pwr_ex.c ****       {
 354:Drivers/STM32G0xx_HAL_Driver/Src/stm32g0xx_hal_pwr_ex.c ****         __HAL_PWR_PVM_EXTI_ENABLE_EVENT();
 788              		.loc 1 354 9
 789 007c 154A     		ldr	r2, .L54
 790 007e 9423     		movs	r3, #148
 791 0080 D358     		ldr	r3, [r2, r3]
 792 0082 1449     		ldr	r1, .L54
 793 0084 0422     		movs	r2, #4
 794 0086 1343     		orrs	r3, r2
 795 0088 9422     		movs	r2, #148
 796 008a 8B50     		str	r3, [r1, r2]
 797              	.L48:
 355:Drivers/STM32G0xx_HAL_Driver/Src/stm32g0xx_hal_pwr_ex.c ****       }
 356:Drivers/STM32G0xx_HAL_Driver/Src/stm32g0xx_hal_pwr_ex.c **** 
 357:Drivers/STM32G0xx_HAL_Driver/Src/stm32g0xx_hal_pwr_ex.c ****       /* Configure the edge */
 358:Drivers/STM32G0xx_HAL_Driver/Src/stm32g0xx_hal_pwr_ex.c ****       if ((sConfigPVM->Mode & PVM_RISING_EDGE) == PVM_RISING_EDGE)
 798              		.loc 1 358 22
 799 008c 7B68     		ldr	r3, [r7, #4]
 800 008e 5B68     		ldr	r3, [r3, #4]
 801              		.loc 1 358 29
 802 0090 0122     		movs	r2, #1
 803 0092 1340     		ands	r3, r2
 804              		.loc 1 358 10
 805 0094 05D0     		beq	.L49
 359:Drivers/STM32G0xx_HAL_Driver/Src/stm32g0xx_hal_pwr_ex.c ****       {
 360:Drivers/STM32G0xx_HAL_Driver/Src/stm32g0xx_hal_pwr_ex.c ****         __HAL_PWR_PVM_EXTI_ENABLE_RISING_EDGE();
 806              		.loc 1 360 9
 807 0096 0F4B     		ldr	r3, .L54
 808 0098 1A6A     		ldr	r2, [r3, #32]
ARM GAS  C:\Users\ADMINI~1\AppData\Local\Temp\cc2Uyp30.s 			page 21


 809 009a 0E4B     		ldr	r3, .L54
 810 009c 0421     		movs	r1, #4
 811 009e 0A43     		orrs	r2, r1
 812 00a0 1A62     		str	r2, [r3, #32]
 813              	.L49:
 361:Drivers/STM32G0xx_HAL_Driver/Src/stm32g0xx_hal_pwr_ex.c ****       }
 362:Drivers/STM32G0xx_HAL_Driver/Src/stm32g0xx_hal_pwr_ex.c **** 
 363:Drivers/STM32G0xx_HAL_Driver/Src/stm32g0xx_hal_pwr_ex.c ****       if ((sConfigPVM->Mode & PVM_FALLING_EDGE) == PVM_FALLING_EDGE)
 814              		.loc 1 363 22
 815 00a2 7B68     		ldr	r3, [r7, #4]
 816 00a4 5B68     		ldr	r3, [r3, #4]
 817              		.loc 1 363 29
 818 00a6 0222     		movs	r2, #2
 819 00a8 1340     		ands	r3, r2
 820              		.loc 1 363 10
 821 00aa 0BD0     		beq	.L53
 364:Drivers/STM32G0xx_HAL_Driver/Src/stm32g0xx_hal_pwr_ex.c ****       {
 365:Drivers/STM32G0xx_HAL_Driver/Src/stm32g0xx_hal_pwr_ex.c ****         __HAL_PWR_PVM_EXTI_ENABLE_FALLING_EDGE();
 822              		.loc 1 365 9
 823 00ac 094B     		ldr	r3, .L54
 824 00ae 5A6A     		ldr	r2, [r3, #36]
 825 00b0 084B     		ldr	r3, .L54
 826 00b2 0421     		movs	r1, #4
 827 00b4 0A43     		orrs	r2, r1
 828 00b6 5A62     		str	r2, [r3, #36]
 366:Drivers/STM32G0xx_HAL_Driver/Src/stm32g0xx_hal_pwr_ex.c ****       }
 367:Drivers/STM32G0xx_HAL_Driver/Src/stm32g0xx_hal_pwr_ex.c ****       break;
 829              		.loc 1 367 7
 830 00b8 04E0     		b	.L53
 831              	.L46:
 368:Drivers/STM32G0xx_HAL_Driver/Src/stm32g0xx_hal_pwr_ex.c **** 
 369:Drivers/STM32G0xx_HAL_Driver/Src/stm32g0xx_hal_pwr_ex.c ****     default:
 370:Drivers/STM32G0xx_HAL_Driver/Src/stm32g0xx_hal_pwr_ex.c ****       status = HAL_ERROR;
 832              		.loc 1 370 14
 833 00ba 0F23     		movs	r3, #15
 834 00bc FB18     		adds	r3, r7, r3
 835 00be 0122     		movs	r2, #1
 836 00c0 1A70     		strb	r2, [r3]
 371:Drivers/STM32G0xx_HAL_Driver/Src/stm32g0xx_hal_pwr_ex.c ****       break;
 837              		.loc 1 371 7
 838 00c2 00E0     		b	.L51
 839              	.L53:
 367:Drivers/STM32G0xx_HAL_Driver/Src/stm32g0xx_hal_pwr_ex.c **** 
 840              		.loc 1 367 7
 841 00c4 C046     		nop
 842              	.L51:
 372:Drivers/STM32G0xx_HAL_Driver/Src/stm32g0xx_hal_pwr_ex.c ****   }
 373:Drivers/STM32G0xx_HAL_Driver/Src/stm32g0xx_hal_pwr_ex.c **** 
 374:Drivers/STM32G0xx_HAL_Driver/Src/stm32g0xx_hal_pwr_ex.c ****   return status;
 843              		.loc 1 374 10
 844 00c6 0F23     		movs	r3, #15
 845 00c8 FB18     		adds	r3, r7, r3
 846 00ca 1B78     		ldrb	r3, [r3]
 375:Drivers/STM32G0xx_HAL_Driver/Src/stm32g0xx_hal_pwr_ex.c **** }
 847              		.loc 1 375 1
 848 00cc 1800     		movs	r0, r3
 849 00ce BD46     		mov	sp, r7
ARM GAS  C:\Users\ADMINI~1\AppData\Local\Temp\cc2Uyp30.s 			page 22


 850 00d0 04B0     		add	sp, sp, #16
 851              		@ sp needed
 852 00d2 80BD     		pop	{r7, pc}
 853              	.L55:
 854              		.align	2
 855              	.L54:
 856 00d4 00180240 		.word	1073879040
 857              		.cfi_endproc
 858              	.LFE376:
 860              		.section	.text.HAL_PWREx_EnableInternalWakeUpLine,"ax",%progbits
 861              		.align	1
 862              		.global	HAL_PWREx_EnableInternalWakeUpLine
 863              		.syntax unified
 864              		.code	16
 865              		.thumb_func
 867              	HAL_PWREx_EnableInternalWakeUpLine:
 868              	.LFB377:
 376:Drivers/STM32G0xx_HAL_Driver/Src/stm32g0xx_hal_pwr_ex.c **** #endif /* PWR_PVM_SUPPORT */
 377:Drivers/STM32G0xx_HAL_Driver/Src/stm32g0xx_hal_pwr_ex.c **** /**
 378:Drivers/STM32G0xx_HAL_Driver/Src/stm32g0xx_hal_pwr_ex.c ****   * @brief  Enable Internal Wake-up Line.
 379:Drivers/STM32G0xx_HAL_Driver/Src/stm32g0xx_hal_pwr_ex.c ****   * @retval None
 380:Drivers/STM32G0xx_HAL_Driver/Src/stm32g0xx_hal_pwr_ex.c ****   */
 381:Drivers/STM32G0xx_HAL_Driver/Src/stm32g0xx_hal_pwr_ex.c **** void HAL_PWREx_EnableInternalWakeUpLine(void)
 382:Drivers/STM32G0xx_HAL_Driver/Src/stm32g0xx_hal_pwr_ex.c **** {
 869              		.loc 1 382 1
 870              		.cfi_startproc
 871              		@ args = 0, pretend = 0, frame = 0
 872              		@ frame_needed = 1, uses_anonymous_args = 0
 873 0000 80B5     		push	{r7, lr}
 874              	.LCFI31:
 875              		.cfi_def_cfa_offset 8
 876              		.cfi_offset 7, -8
 877              		.cfi_offset 14, -4
 878 0002 00AF     		add	r7, sp, #0
 879              	.LCFI32:
 880              		.cfi_def_cfa_register 7
 383:Drivers/STM32G0xx_HAL_Driver/Src/stm32g0xx_hal_pwr_ex.c ****   SET_BIT(PWR->CR3, PWR_CR3_EIWUL);
 881              		.loc 1 383 3
 882 0004 044B     		ldr	r3, .L57
 883 0006 9A68     		ldr	r2, [r3, #8]
 884 0008 034B     		ldr	r3, .L57
 885 000a 8021     		movs	r1, #128
 886 000c 0902     		lsls	r1, r1, #8
 887 000e 0A43     		orrs	r2, r1
 888 0010 9A60     		str	r2, [r3, #8]
 384:Drivers/STM32G0xx_HAL_Driver/Src/stm32g0xx_hal_pwr_ex.c **** }
 889              		.loc 1 384 1
 890 0012 C046     		nop
 891 0014 BD46     		mov	sp, r7
 892              		@ sp needed
 893 0016 80BD     		pop	{r7, pc}
 894              	.L58:
 895              		.align	2
 896              	.L57:
 897 0018 00700040 		.word	1073770496
 898              		.cfi_endproc
 899              	.LFE377:
ARM GAS  C:\Users\ADMINI~1\AppData\Local\Temp\cc2Uyp30.s 			page 23


 901              		.section	.text.HAL_PWREx_DisableInternalWakeUpLine,"ax",%progbits
 902              		.align	1
 903              		.global	HAL_PWREx_DisableInternalWakeUpLine
 904              		.syntax unified
 905              		.code	16
 906              		.thumb_func
 908              	HAL_PWREx_DisableInternalWakeUpLine:
 909              	.LFB378:
 385:Drivers/STM32G0xx_HAL_Driver/Src/stm32g0xx_hal_pwr_ex.c **** 
 386:Drivers/STM32G0xx_HAL_Driver/Src/stm32g0xx_hal_pwr_ex.c **** /**
 387:Drivers/STM32G0xx_HAL_Driver/Src/stm32g0xx_hal_pwr_ex.c ****   * @brief  Disable Internal Wake-up Line.
 388:Drivers/STM32G0xx_HAL_Driver/Src/stm32g0xx_hal_pwr_ex.c ****   * @retval None
 389:Drivers/STM32G0xx_HAL_Driver/Src/stm32g0xx_hal_pwr_ex.c ****   */
 390:Drivers/STM32G0xx_HAL_Driver/Src/stm32g0xx_hal_pwr_ex.c **** void HAL_PWREx_DisableInternalWakeUpLine(void)
 391:Drivers/STM32G0xx_HAL_Driver/Src/stm32g0xx_hal_pwr_ex.c **** {
 910              		.loc 1 391 1
 911              		.cfi_startproc
 912              		@ args = 0, pretend = 0, frame = 0
 913              		@ frame_needed = 1, uses_anonymous_args = 0
 914 0000 80B5     		push	{r7, lr}
 915              	.LCFI33:
 916              		.cfi_def_cfa_offset 8
 917              		.cfi_offset 7, -8
 918              		.cfi_offset 14, -4
 919 0002 00AF     		add	r7, sp, #0
 920              	.LCFI34:
 921              		.cfi_def_cfa_register 7
 392:Drivers/STM32G0xx_HAL_Driver/Src/stm32g0xx_hal_pwr_ex.c ****   CLEAR_BIT(PWR->CR3, PWR_CR3_EIWUL);
 922              		.loc 1 392 3
 923 0004 044B     		ldr	r3, .L60
 924 0006 9A68     		ldr	r2, [r3, #8]
 925 0008 034B     		ldr	r3, .L60
 926 000a 0449     		ldr	r1, .L60+4
 927 000c 0A40     		ands	r2, r1
 928 000e 9A60     		str	r2, [r3, #8]
 393:Drivers/STM32G0xx_HAL_Driver/Src/stm32g0xx_hal_pwr_ex.c **** }
 929              		.loc 1 393 1
 930 0010 C046     		nop
 931 0012 BD46     		mov	sp, r7
 932              		@ sp needed
 933 0014 80BD     		pop	{r7, pc}
 934              	.L61:
 935 0016 C046     		.align	2
 936              	.L60:
 937 0018 00700040 		.word	1073770496
 938 001c FF7FFFFF 		.word	-32769
 939              		.cfi_endproc
 940              	.LFE378:
 942              		.section	.text.HAL_PWREx_EnableGPIOPullUp,"ax",%progbits
 943              		.align	1
 944              		.global	HAL_PWREx_EnableGPIOPullUp
 945              		.syntax unified
 946              		.code	16
 947              		.thumb_func
 949              	HAL_PWREx_EnableGPIOPullUp:
 950              	.LFB379:
 394:Drivers/STM32G0xx_HAL_Driver/Src/stm32g0xx_hal_pwr_ex.c **** 
ARM GAS  C:\Users\ADMINI~1\AppData\Local\Temp\cc2Uyp30.s 			page 24


 395:Drivers/STM32G0xx_HAL_Driver/Src/stm32g0xx_hal_pwr_ex.c **** /**
 396:Drivers/STM32G0xx_HAL_Driver/Src/stm32g0xx_hal_pwr_ex.c ****   * @brief  Enable GPIO pull-up state in Standby and Shutdown modes.
 397:Drivers/STM32G0xx_HAL_Driver/Src/stm32g0xx_hal_pwr_ex.c ****   * @note   Set the relevant PUy bit of PWR_PUCRx register to configure the I/O in
 398:Drivers/STM32G0xx_HAL_Driver/Src/stm32g0xx_hal_pwr_ex.c ****   *         pull-up state in Standby and Shutdown modes.
 399:Drivers/STM32G0xx_HAL_Driver/Src/stm32g0xx_hal_pwr_ex.c ****   * @note   This state is effective in Standby and Shutdown modes only if APC bit
 400:Drivers/STM32G0xx_HAL_Driver/Src/stm32g0xx_hal_pwr_ex.c ****   *         is set through HAL_PWREx_EnablePullUpPullDownConfig() API.
 401:Drivers/STM32G0xx_HAL_Driver/Src/stm32g0xx_hal_pwr_ex.c ****   * @note   The configuration is lost when exiting the Shutdown mode due to the
 402:Drivers/STM32G0xx_HAL_Driver/Src/stm32g0xx_hal_pwr_ex.c ****   *         power-on reset, maintained when exiting the Standby mode.
 403:Drivers/STM32G0xx_HAL_Driver/Src/stm32g0xx_hal_pwr_ex.c ****   * @note   To avoid any conflict at Standby and Shutdown modes exits, the corresponding
 404:Drivers/STM32G0xx_HAL_Driver/Src/stm32g0xx_hal_pwr_ex.c ****   *         PDy bit of PWR_PDCRx register is cleared unless it is reserved.
 405:Drivers/STM32G0xx_HAL_Driver/Src/stm32g0xx_hal_pwr_ex.c ****   * @param  GPIO Specify the IO port. This parameter can be PWR_GPIO_A, ..., PWR_GPIO_F
 406:Drivers/STM32G0xx_HAL_Driver/Src/stm32g0xx_hal_pwr_ex.c ****   *         to select the GPIO peripheral.
 407:Drivers/STM32G0xx_HAL_Driver/Src/stm32g0xx_hal_pwr_ex.c ****   * @param  GPIONumber Specify the I/O pins numbers.
 408:Drivers/STM32G0xx_HAL_Driver/Src/stm32g0xx_hal_pwr_ex.c ****   *         This parameter can be one of the following values:
 409:Drivers/STM32G0xx_HAL_Driver/Src/stm32g0xx_hal_pwr_ex.c ****   *         PWR_GPIO_BIT_0, ..., PWR_GPIO_BIT_15 (except for ports where less
 410:Drivers/STM32G0xx_HAL_Driver/Src/stm32g0xx_hal_pwr_ex.c ****   *         I/O pins are available) or the logical OR of several of them to set
 411:Drivers/STM32G0xx_HAL_Driver/Src/stm32g0xx_hal_pwr_ex.c ****   *         several bits for a given port in a single API call.
 412:Drivers/STM32G0xx_HAL_Driver/Src/stm32g0xx_hal_pwr_ex.c ****   * @retval HAL Status
 413:Drivers/STM32G0xx_HAL_Driver/Src/stm32g0xx_hal_pwr_ex.c ****   */
 414:Drivers/STM32G0xx_HAL_Driver/Src/stm32g0xx_hal_pwr_ex.c **** HAL_StatusTypeDef HAL_PWREx_EnableGPIOPullUp(uint32_t GPIO, uint32_t GPIONumber)
 415:Drivers/STM32G0xx_HAL_Driver/Src/stm32g0xx_hal_pwr_ex.c **** {
 951              		.loc 1 415 1
 952              		.cfi_startproc
 953              		@ args = 0, pretend = 0, frame = 16
 954              		@ frame_needed = 1, uses_anonymous_args = 0
 955 0000 80B5     		push	{r7, lr}
 956              	.LCFI35:
 957              		.cfi_def_cfa_offset 8
 958              		.cfi_offset 7, -8
 959              		.cfi_offset 14, -4
 960 0002 84B0     		sub	sp, sp, #16
 961              	.LCFI36:
 962              		.cfi_def_cfa_offset 24
 963 0004 00AF     		add	r7, sp, #0
 964              	.LCFI37:
 965              		.cfi_def_cfa_register 7
 966 0006 7860     		str	r0, [r7, #4]
 967 0008 3960     		str	r1, [r7]
 416:Drivers/STM32G0xx_HAL_Driver/Src/stm32g0xx_hal_pwr_ex.c ****   HAL_StatusTypeDef status = HAL_OK;
 968              		.loc 1 416 21
 969 000a 0F23     		movs	r3, #15
 970 000c FB18     		adds	r3, r7, r3
 971 000e 0022     		movs	r2, #0
 972 0010 1A70     		strb	r2, [r3]
 417:Drivers/STM32G0xx_HAL_Driver/Src/stm32g0xx_hal_pwr_ex.c **** 
 418:Drivers/STM32G0xx_HAL_Driver/Src/stm32g0xx_hal_pwr_ex.c ****   assert_param(IS_PWR_GPIO(GPIO));
 419:Drivers/STM32G0xx_HAL_Driver/Src/stm32g0xx_hal_pwr_ex.c ****   assert_param(IS_PWR_GPIO_BIT_NUMBER(GPIONumber));
 420:Drivers/STM32G0xx_HAL_Driver/Src/stm32g0xx_hal_pwr_ex.c **** 
 421:Drivers/STM32G0xx_HAL_Driver/Src/stm32g0xx_hal_pwr_ex.c ****   switch (GPIO)
 973              		.loc 1 421 3
 974 0012 7B68     		ldr	r3, [r7, #4]
 975 0014 052B     		cmp	r3, #5
 976 0016 4FD8     		bhi	.L63
 977 0018 7B68     		ldr	r3, [r7, #4]
 978 001a 9A00     		lsls	r2, r3, #2
 979 001c 2C4B     		ldr	r3, .L72
 980 001e D318     		adds	r3, r2, r3
ARM GAS  C:\Users\ADMINI~1\AppData\Local\Temp\cc2Uyp30.s 			page 25


 981 0020 1B68     		ldr	r3, [r3]
 982 0022 9F46     		mov	pc, r3
 983              		.section	.rodata.HAL_PWREx_EnableGPIOPullUp,"a",%progbits
 984              		.align	2
 985              	.L65:
 986 0000 24000000 		.word	.L69
 987 0004 48000000 		.word	.L68
 988 0008 64000000 		.word	.L67
 989 000c 80000000 		.word	.L66
 990 0010 B8000000 		.word	.L63
 991 0014 9C000000 		.word	.L64
 992              		.section	.text.HAL_PWREx_EnableGPIOPullUp
 993              	.L69:
 422:Drivers/STM32G0xx_HAL_Driver/Src/stm32g0xx_hal_pwr_ex.c ****   {
 423:Drivers/STM32G0xx_HAL_Driver/Src/stm32g0xx_hal_pwr_ex.c ****     case PWR_GPIO_A:
 424:Drivers/STM32G0xx_HAL_Driver/Src/stm32g0xx_hal_pwr_ex.c ****       SET_BIT(PWR->PUCRA, (GPIONumber & ~PWR_GPIO_BIT_14));
 994              		.loc 1 424 7
 995 0024 2B4B     		ldr	r3, .L72+4
 996 0026 196A     		ldr	r1, [r3, #32]
 997 0028 3B68     		ldr	r3, [r7]
 998 002a 2B4A     		ldr	r2, .L72+8
 999 002c 1A40     		ands	r2, r3
 1000 002e 294B     		ldr	r3, .L72+4
 1001 0030 0A43     		orrs	r2, r1
 1002 0032 1A62     		str	r2, [r3, #32]
 425:Drivers/STM32G0xx_HAL_Driver/Src/stm32g0xx_hal_pwr_ex.c ****       CLEAR_BIT(PWR->PDCRA, (GPIONumber & ~PWR_GPIO_BIT_13));
 1003              		.loc 1 425 7
 1004 0034 274B     		ldr	r3, .L72+4
 1005 0036 5A6A     		ldr	r2, [r3, #36]
 1006 0038 3B68     		ldr	r3, [r7]
 1007 003a 2849     		ldr	r1, .L72+12
 1008 003c 0B40     		ands	r3, r1
 1009 003e D943     		mvns	r1, r3
 1010 0040 244B     		ldr	r3, .L72+4
 1011 0042 0A40     		ands	r2, r1
 1012 0044 5A62     		str	r2, [r3, #36]
 426:Drivers/STM32G0xx_HAL_Driver/Src/stm32g0xx_hal_pwr_ex.c ****       break;
 1013              		.loc 1 426 7
 1014 0046 3CE0     		b	.L70
 1015              	.L68:
 427:Drivers/STM32G0xx_HAL_Driver/Src/stm32g0xx_hal_pwr_ex.c **** 
 428:Drivers/STM32G0xx_HAL_Driver/Src/stm32g0xx_hal_pwr_ex.c ****     case PWR_GPIO_B:
 429:Drivers/STM32G0xx_HAL_Driver/Src/stm32g0xx_hal_pwr_ex.c ****       SET_BIT(PWR->PUCRB, GPIONumber);
 1016              		.loc 1 429 7
 1017 0048 224B     		ldr	r3, .L72+4
 1018 004a 996A     		ldr	r1, [r3, #40]
 1019 004c 214B     		ldr	r3, .L72+4
 1020 004e 3A68     		ldr	r2, [r7]
 1021 0050 0A43     		orrs	r2, r1
 1022 0052 9A62     		str	r2, [r3, #40]
 430:Drivers/STM32G0xx_HAL_Driver/Src/stm32g0xx_hal_pwr_ex.c ****       CLEAR_BIT(PWR->PDCRB, GPIONumber);
 1023              		.loc 1 430 7
 1024 0054 1F4B     		ldr	r3, .L72+4
 1025 0056 DA6A     		ldr	r2, [r3, #44]
 1026 0058 3B68     		ldr	r3, [r7]
 1027 005a D943     		mvns	r1, r3
 1028 005c 1D4B     		ldr	r3, .L72+4
ARM GAS  C:\Users\ADMINI~1\AppData\Local\Temp\cc2Uyp30.s 			page 26


 1029 005e 0A40     		ands	r2, r1
 1030 0060 DA62     		str	r2, [r3, #44]
 431:Drivers/STM32G0xx_HAL_Driver/Src/stm32g0xx_hal_pwr_ex.c ****       break;
 1031              		.loc 1 431 7
 1032 0062 2EE0     		b	.L70
 1033              	.L67:
 432:Drivers/STM32G0xx_HAL_Driver/Src/stm32g0xx_hal_pwr_ex.c **** 
 433:Drivers/STM32G0xx_HAL_Driver/Src/stm32g0xx_hal_pwr_ex.c ****     case PWR_GPIO_C:
 434:Drivers/STM32G0xx_HAL_Driver/Src/stm32g0xx_hal_pwr_ex.c ****       SET_BIT(PWR->PUCRC, GPIONumber);
 1034              		.loc 1 434 7
 1035 0064 1B4B     		ldr	r3, .L72+4
 1036 0066 196B     		ldr	r1, [r3, #48]
 1037 0068 1A4B     		ldr	r3, .L72+4
 1038 006a 3A68     		ldr	r2, [r7]
 1039 006c 0A43     		orrs	r2, r1
 1040 006e 1A63     		str	r2, [r3, #48]
 435:Drivers/STM32G0xx_HAL_Driver/Src/stm32g0xx_hal_pwr_ex.c ****       CLEAR_BIT(PWR->PDCRC, GPIONumber);
 1041              		.loc 1 435 7
 1042 0070 184B     		ldr	r3, .L72+4
 1043 0072 5A6B     		ldr	r2, [r3, #52]
 1044 0074 3B68     		ldr	r3, [r7]
 1045 0076 D943     		mvns	r1, r3
 1046 0078 164B     		ldr	r3, .L72+4
 1047 007a 0A40     		ands	r2, r1
 1048 007c 5A63     		str	r2, [r3, #52]
 436:Drivers/STM32G0xx_HAL_Driver/Src/stm32g0xx_hal_pwr_ex.c ****       break;
 1049              		.loc 1 436 7
 1050 007e 20E0     		b	.L70
 1051              	.L66:
 437:Drivers/STM32G0xx_HAL_Driver/Src/stm32g0xx_hal_pwr_ex.c **** 
 438:Drivers/STM32G0xx_HAL_Driver/Src/stm32g0xx_hal_pwr_ex.c ****     case PWR_GPIO_D:
 439:Drivers/STM32G0xx_HAL_Driver/Src/stm32g0xx_hal_pwr_ex.c ****       SET_BIT(PWR->PUCRD, GPIONumber);
 1052              		.loc 1 439 7
 1053 0080 144B     		ldr	r3, .L72+4
 1054 0082 996B     		ldr	r1, [r3, #56]
 1055 0084 134B     		ldr	r3, .L72+4
 1056 0086 3A68     		ldr	r2, [r7]
 1057 0088 0A43     		orrs	r2, r1
 1058 008a 9A63     		str	r2, [r3, #56]
 440:Drivers/STM32G0xx_HAL_Driver/Src/stm32g0xx_hal_pwr_ex.c ****       CLEAR_BIT(PWR->PDCRD, GPIONumber);
 1059              		.loc 1 440 7
 1060 008c 114B     		ldr	r3, .L72+4
 1061 008e DA6B     		ldr	r2, [r3, #60]
 1062 0090 3B68     		ldr	r3, [r7]
 1063 0092 D943     		mvns	r1, r3
 1064 0094 0F4B     		ldr	r3, .L72+4
 1065 0096 0A40     		ands	r2, r1
 1066 0098 DA63     		str	r2, [r3, #60]
 441:Drivers/STM32G0xx_HAL_Driver/Src/stm32g0xx_hal_pwr_ex.c ****       break;
 1067              		.loc 1 441 7
 1068 009a 12E0     		b	.L70
 1069              	.L64:
 442:Drivers/STM32G0xx_HAL_Driver/Src/stm32g0xx_hal_pwr_ex.c **** 
 443:Drivers/STM32G0xx_HAL_Driver/Src/stm32g0xx_hal_pwr_ex.c **** #if defined(GPI0E)
 444:Drivers/STM32G0xx_HAL_Driver/Src/stm32g0xx_hal_pwr_ex.c ****     case PWR_GPIO_E:
 445:Drivers/STM32G0xx_HAL_Driver/Src/stm32g0xx_hal_pwr_ex.c ****       SET_BIT(PWR->PUCRE, GPIONumber);
 446:Drivers/STM32G0xx_HAL_Driver/Src/stm32g0xx_hal_pwr_ex.c ****       CLEAR_BIT(PWR->PDCRE, GPIONumber);
ARM GAS  C:\Users\ADMINI~1\AppData\Local\Temp\cc2Uyp30.s 			page 27


 447:Drivers/STM32G0xx_HAL_Driver/Src/stm32g0xx_hal_pwr_ex.c ****       break;
 448:Drivers/STM32G0xx_HAL_Driver/Src/stm32g0xx_hal_pwr_ex.c **** #endif /* GPI0E */
 449:Drivers/STM32G0xx_HAL_Driver/Src/stm32g0xx_hal_pwr_ex.c ****     case PWR_GPIO_F:
 450:Drivers/STM32G0xx_HAL_Driver/Src/stm32g0xx_hal_pwr_ex.c ****       SET_BIT(PWR->PUCRF, GPIONumber);
 1070              		.loc 1 450 7
 1071 009c 0D4B     		ldr	r3, .L72+4
 1072 009e 996C     		ldr	r1, [r3, #72]
 1073 00a0 0C4B     		ldr	r3, .L72+4
 1074 00a2 3A68     		ldr	r2, [r7]
 1075 00a4 0A43     		orrs	r2, r1
 1076 00a6 9A64     		str	r2, [r3, #72]
 451:Drivers/STM32G0xx_HAL_Driver/Src/stm32g0xx_hal_pwr_ex.c ****       CLEAR_BIT(PWR->PDCRF, GPIONumber);
 1077              		.loc 1 451 7
 1078 00a8 0A4B     		ldr	r3, .L72+4
 1079 00aa DA6C     		ldr	r2, [r3, #76]
 1080 00ac 3B68     		ldr	r3, [r7]
 1081 00ae D943     		mvns	r1, r3
 1082 00b0 084B     		ldr	r3, .L72+4
 1083 00b2 0A40     		ands	r2, r1
 1084 00b4 DA64     		str	r2, [r3, #76]
 452:Drivers/STM32G0xx_HAL_Driver/Src/stm32g0xx_hal_pwr_ex.c ****       break;
 1085              		.loc 1 452 7
 1086 00b6 04E0     		b	.L70
 1087              	.L63:
 453:Drivers/STM32G0xx_HAL_Driver/Src/stm32g0xx_hal_pwr_ex.c **** 
 454:Drivers/STM32G0xx_HAL_Driver/Src/stm32g0xx_hal_pwr_ex.c ****     default:
 455:Drivers/STM32G0xx_HAL_Driver/Src/stm32g0xx_hal_pwr_ex.c ****       status = HAL_ERROR;
 1088              		.loc 1 455 14
 1089 00b8 0F23     		movs	r3, #15
 1090 00ba FB18     		adds	r3, r7, r3
 1091 00bc 0122     		movs	r2, #1
 1092 00be 1A70     		strb	r2, [r3]
 456:Drivers/STM32G0xx_HAL_Driver/Src/stm32g0xx_hal_pwr_ex.c ****       break;
 1093              		.loc 1 456 7
 1094 00c0 C046     		nop
 1095              	.L70:
 457:Drivers/STM32G0xx_HAL_Driver/Src/stm32g0xx_hal_pwr_ex.c ****   }
 458:Drivers/STM32G0xx_HAL_Driver/Src/stm32g0xx_hal_pwr_ex.c **** 
 459:Drivers/STM32G0xx_HAL_Driver/Src/stm32g0xx_hal_pwr_ex.c ****   return status;
 1096              		.loc 1 459 10
 1097 00c2 0F23     		movs	r3, #15
 1098 00c4 FB18     		adds	r3, r7, r3
 1099 00c6 1B78     		ldrb	r3, [r3]
 460:Drivers/STM32G0xx_HAL_Driver/Src/stm32g0xx_hal_pwr_ex.c **** }
 1100              		.loc 1 460 1
 1101 00c8 1800     		movs	r0, r3
 1102 00ca BD46     		mov	sp, r7
 1103 00cc 04B0     		add	sp, sp, #16
 1104              		@ sp needed
 1105 00ce 80BD     		pop	{r7, pc}
 1106              	.L73:
 1107              		.align	2
 1108              	.L72:
 1109 00d0 00000000 		.word	.L65
 1110 00d4 00700040 		.word	1073770496
 1111 00d8 FFBFFFFF 		.word	-16385
 1112 00dc FFDFFFFF 		.word	-8193
ARM GAS  C:\Users\ADMINI~1\AppData\Local\Temp\cc2Uyp30.s 			page 28


 1113              		.cfi_endproc
 1114              	.LFE379:
 1116              		.section	.text.HAL_PWREx_DisableGPIOPullUp,"ax",%progbits
 1117              		.align	1
 1118              		.global	HAL_PWREx_DisableGPIOPullUp
 1119              		.syntax unified
 1120              		.code	16
 1121              		.thumb_func
 1123              	HAL_PWREx_DisableGPIOPullUp:
 1124              	.LFB380:
 461:Drivers/STM32G0xx_HAL_Driver/Src/stm32g0xx_hal_pwr_ex.c **** 
 462:Drivers/STM32G0xx_HAL_Driver/Src/stm32g0xx_hal_pwr_ex.c **** 
 463:Drivers/STM32G0xx_HAL_Driver/Src/stm32g0xx_hal_pwr_ex.c **** /**
 464:Drivers/STM32G0xx_HAL_Driver/Src/stm32g0xx_hal_pwr_ex.c ****   * @brief  Disable GPIO pull-up state in Standby mode and Shutdown modes.
 465:Drivers/STM32G0xx_HAL_Driver/Src/stm32g0xx_hal_pwr_ex.c ****   * @note   Reset the relevant PUy bit of PWR_PUCRx register used to configure the I/O
 466:Drivers/STM32G0xx_HAL_Driver/Src/stm32g0xx_hal_pwr_ex.c ****   *         in pull-up state in Standby and Shutdown modes.
 467:Drivers/STM32G0xx_HAL_Driver/Src/stm32g0xx_hal_pwr_ex.c ****   * @param  GPIO Specifies the IO port. This parameter can be PWR_GPIO_A, ..., PWR_GPIO_F
 468:Drivers/STM32G0xx_HAL_Driver/Src/stm32g0xx_hal_pwr_ex.c ****   *         to select the GPIO peripheral.
 469:Drivers/STM32G0xx_HAL_Driver/Src/stm32g0xx_hal_pwr_ex.c ****   * @param  GPIONumber Specify the I/O pins numbers.
 470:Drivers/STM32G0xx_HAL_Driver/Src/stm32g0xx_hal_pwr_ex.c ****   *         This parameter can be one of the following values:
 471:Drivers/STM32G0xx_HAL_Driver/Src/stm32g0xx_hal_pwr_ex.c ****   *         PWR_GPIO_BIT_0, ..., PWR_GPIO_BIT_15 (except for ports where less
 472:Drivers/STM32G0xx_HAL_Driver/Src/stm32g0xx_hal_pwr_ex.c ****   *         I/O pins are available) or the logical OR of several of them to reset
 473:Drivers/STM32G0xx_HAL_Driver/Src/stm32g0xx_hal_pwr_ex.c ****   *         several bits for a given port in a single API call.
 474:Drivers/STM32G0xx_HAL_Driver/Src/stm32g0xx_hal_pwr_ex.c ****   * @retval HAL Status
 475:Drivers/STM32G0xx_HAL_Driver/Src/stm32g0xx_hal_pwr_ex.c ****   */
 476:Drivers/STM32G0xx_HAL_Driver/Src/stm32g0xx_hal_pwr_ex.c **** HAL_StatusTypeDef HAL_PWREx_DisableGPIOPullUp(uint32_t GPIO, uint32_t GPIONumber)
 477:Drivers/STM32G0xx_HAL_Driver/Src/stm32g0xx_hal_pwr_ex.c **** {
 1125              		.loc 1 477 1
 1126              		.cfi_startproc
 1127              		@ args = 0, pretend = 0, frame = 16
 1128              		@ frame_needed = 1, uses_anonymous_args = 0
 1129 0000 80B5     		push	{r7, lr}
 1130              	.LCFI38:
 1131              		.cfi_def_cfa_offset 8
 1132              		.cfi_offset 7, -8
 1133              		.cfi_offset 14, -4
 1134 0002 84B0     		sub	sp, sp, #16
 1135              	.LCFI39:
 1136              		.cfi_def_cfa_offset 24
 1137 0004 00AF     		add	r7, sp, #0
 1138              	.LCFI40:
 1139              		.cfi_def_cfa_register 7
 1140 0006 7860     		str	r0, [r7, #4]
 1141 0008 3960     		str	r1, [r7]
 478:Drivers/STM32G0xx_HAL_Driver/Src/stm32g0xx_hal_pwr_ex.c ****   HAL_StatusTypeDef status = HAL_OK;
 1142              		.loc 1 478 21
 1143 000a 0F23     		movs	r3, #15
 1144 000c FB18     		adds	r3, r7, r3
 1145 000e 0022     		movs	r2, #0
 1146 0010 1A70     		strb	r2, [r3]
 479:Drivers/STM32G0xx_HAL_Driver/Src/stm32g0xx_hal_pwr_ex.c **** 
 480:Drivers/STM32G0xx_HAL_Driver/Src/stm32g0xx_hal_pwr_ex.c ****   assert_param(IS_PWR_GPIO(GPIO));
 481:Drivers/STM32G0xx_HAL_Driver/Src/stm32g0xx_hal_pwr_ex.c ****   assert_param(IS_PWR_GPIO_BIT_NUMBER(GPIONumber));
 482:Drivers/STM32G0xx_HAL_Driver/Src/stm32g0xx_hal_pwr_ex.c **** 
 483:Drivers/STM32G0xx_HAL_Driver/Src/stm32g0xx_hal_pwr_ex.c ****   switch (GPIO)
 1147              		.loc 1 483 3
 1148 0012 7B68     		ldr	r3, [r7, #4]
ARM GAS  C:\Users\ADMINI~1\AppData\Local\Temp\cc2Uyp30.s 			page 29


 1149 0014 052B     		cmp	r3, #5
 1150 0016 2FD8     		bhi	.L75
 1151 0018 7B68     		ldr	r3, [r7, #4]
 1152 001a 9A00     		lsls	r2, r3, #2
 1153 001c 1C4B     		ldr	r3, .L84
 1154 001e D318     		adds	r3, r2, r3
 1155 0020 1B68     		ldr	r3, [r3]
 1156 0022 9F46     		mov	pc, r3
 1157              		.section	.rodata.HAL_PWREx_DisableGPIOPullUp,"a",%progbits
 1158              		.align	2
 1159              	.L77:
 1160 0000 24000000 		.word	.L81
 1161 0004 38000000 		.word	.L80
 1162 0008 48000000 		.word	.L79
 1163 000c 58000000 		.word	.L78
 1164 0010 78000000 		.word	.L75
 1165 0014 68000000 		.word	.L76
 1166              		.section	.text.HAL_PWREx_DisableGPIOPullUp
 1167              	.L81:
 484:Drivers/STM32G0xx_HAL_Driver/Src/stm32g0xx_hal_pwr_ex.c ****   {
 485:Drivers/STM32G0xx_HAL_Driver/Src/stm32g0xx_hal_pwr_ex.c ****     case PWR_GPIO_A:
 486:Drivers/STM32G0xx_HAL_Driver/Src/stm32g0xx_hal_pwr_ex.c ****       CLEAR_BIT(PWR->PUCRA, (GPIONumber & ~PWR_GPIO_BIT_14));
 1168              		.loc 1 486 7
 1169 0024 1B4B     		ldr	r3, .L84+4
 1170 0026 1A6A     		ldr	r2, [r3, #32]
 1171 0028 3B68     		ldr	r3, [r7]
 1172 002a 1B49     		ldr	r1, .L84+8
 1173 002c 0B40     		ands	r3, r1
 1174 002e D943     		mvns	r1, r3
 1175 0030 184B     		ldr	r3, .L84+4
 1176 0032 0A40     		ands	r2, r1
 1177 0034 1A62     		str	r2, [r3, #32]
 487:Drivers/STM32G0xx_HAL_Driver/Src/stm32g0xx_hal_pwr_ex.c ****       break;
 1178              		.loc 1 487 7
 1179 0036 24E0     		b	.L82
 1180              	.L80:
 488:Drivers/STM32G0xx_HAL_Driver/Src/stm32g0xx_hal_pwr_ex.c **** 
 489:Drivers/STM32G0xx_HAL_Driver/Src/stm32g0xx_hal_pwr_ex.c ****     case PWR_GPIO_B:
 490:Drivers/STM32G0xx_HAL_Driver/Src/stm32g0xx_hal_pwr_ex.c ****       CLEAR_BIT(PWR->PUCRB, GPIONumber);
 1181              		.loc 1 490 7
 1182 0038 164B     		ldr	r3, .L84+4
 1183 003a 9A6A     		ldr	r2, [r3, #40]
 1184 003c 3B68     		ldr	r3, [r7]
 1185 003e D943     		mvns	r1, r3
 1186 0040 144B     		ldr	r3, .L84+4
 1187 0042 0A40     		ands	r2, r1
 1188 0044 9A62     		str	r2, [r3, #40]
 491:Drivers/STM32G0xx_HAL_Driver/Src/stm32g0xx_hal_pwr_ex.c ****       break;
 1189              		.loc 1 491 7
 1190 0046 1CE0     		b	.L82
 1191              	.L79:
 492:Drivers/STM32G0xx_HAL_Driver/Src/stm32g0xx_hal_pwr_ex.c **** 
 493:Drivers/STM32G0xx_HAL_Driver/Src/stm32g0xx_hal_pwr_ex.c ****     case PWR_GPIO_C:
 494:Drivers/STM32G0xx_HAL_Driver/Src/stm32g0xx_hal_pwr_ex.c ****       CLEAR_BIT(PWR->PUCRC, GPIONumber);
 1192              		.loc 1 494 7
 1193 0048 124B     		ldr	r3, .L84+4
 1194 004a 1A6B     		ldr	r2, [r3, #48]
ARM GAS  C:\Users\ADMINI~1\AppData\Local\Temp\cc2Uyp30.s 			page 30


 1195 004c 3B68     		ldr	r3, [r7]
 1196 004e D943     		mvns	r1, r3
 1197 0050 104B     		ldr	r3, .L84+4
 1198 0052 0A40     		ands	r2, r1
 1199 0054 1A63     		str	r2, [r3, #48]
 495:Drivers/STM32G0xx_HAL_Driver/Src/stm32g0xx_hal_pwr_ex.c ****       break;
 1200              		.loc 1 495 7
 1201 0056 14E0     		b	.L82
 1202              	.L78:
 496:Drivers/STM32G0xx_HAL_Driver/Src/stm32g0xx_hal_pwr_ex.c **** 
 497:Drivers/STM32G0xx_HAL_Driver/Src/stm32g0xx_hal_pwr_ex.c ****     case PWR_GPIO_D:
 498:Drivers/STM32G0xx_HAL_Driver/Src/stm32g0xx_hal_pwr_ex.c ****       CLEAR_BIT(PWR->PUCRD, GPIONumber);
 1203              		.loc 1 498 7
 1204 0058 0E4B     		ldr	r3, .L84+4
 1205 005a 9A6B     		ldr	r2, [r3, #56]
 1206 005c 3B68     		ldr	r3, [r7]
 1207 005e D943     		mvns	r1, r3
 1208 0060 0C4B     		ldr	r3, .L84+4
 1209 0062 0A40     		ands	r2, r1
 1210 0064 9A63     		str	r2, [r3, #56]
 499:Drivers/STM32G0xx_HAL_Driver/Src/stm32g0xx_hal_pwr_ex.c ****       break;
 1211              		.loc 1 499 7
 1212 0066 0CE0     		b	.L82
 1213              	.L76:
 500:Drivers/STM32G0xx_HAL_Driver/Src/stm32g0xx_hal_pwr_ex.c **** 
 501:Drivers/STM32G0xx_HAL_Driver/Src/stm32g0xx_hal_pwr_ex.c **** #if defined(GPI0E)
 502:Drivers/STM32G0xx_HAL_Driver/Src/stm32g0xx_hal_pwr_ex.c ****     case PWR_GPIO_E:
 503:Drivers/STM32G0xx_HAL_Driver/Src/stm32g0xx_hal_pwr_ex.c ****       CLEAR_BIT(PWR->PUCRE, GPIONumber);
 504:Drivers/STM32G0xx_HAL_Driver/Src/stm32g0xx_hal_pwr_ex.c ****       break;
 505:Drivers/STM32G0xx_HAL_Driver/Src/stm32g0xx_hal_pwr_ex.c **** #endif /* GPI0E */
 506:Drivers/STM32G0xx_HAL_Driver/Src/stm32g0xx_hal_pwr_ex.c ****     case PWR_GPIO_F:
 507:Drivers/STM32G0xx_HAL_Driver/Src/stm32g0xx_hal_pwr_ex.c ****       CLEAR_BIT(PWR->PUCRF, GPIONumber);
 1214              		.loc 1 507 7
 1215 0068 0A4B     		ldr	r3, .L84+4
 1216 006a 9A6C     		ldr	r2, [r3, #72]
 1217 006c 3B68     		ldr	r3, [r7]
 1218 006e D943     		mvns	r1, r3
 1219 0070 084B     		ldr	r3, .L84+4
 1220 0072 0A40     		ands	r2, r1
 1221 0074 9A64     		str	r2, [r3, #72]
 508:Drivers/STM32G0xx_HAL_Driver/Src/stm32g0xx_hal_pwr_ex.c ****       break;
 1222              		.loc 1 508 7
 1223 0076 04E0     		b	.L82
 1224              	.L75:
 509:Drivers/STM32G0xx_HAL_Driver/Src/stm32g0xx_hal_pwr_ex.c **** 
 510:Drivers/STM32G0xx_HAL_Driver/Src/stm32g0xx_hal_pwr_ex.c ****     default:
 511:Drivers/STM32G0xx_HAL_Driver/Src/stm32g0xx_hal_pwr_ex.c ****       status = HAL_ERROR;
 1225              		.loc 1 511 14
 1226 0078 0F23     		movs	r3, #15
 1227 007a FB18     		adds	r3, r7, r3
 1228 007c 0122     		movs	r2, #1
 1229 007e 1A70     		strb	r2, [r3]
 512:Drivers/STM32G0xx_HAL_Driver/Src/stm32g0xx_hal_pwr_ex.c ****       break;
 1230              		.loc 1 512 7
 1231 0080 C046     		nop
 1232              	.L82:
 513:Drivers/STM32G0xx_HAL_Driver/Src/stm32g0xx_hal_pwr_ex.c ****   }
ARM GAS  C:\Users\ADMINI~1\AppData\Local\Temp\cc2Uyp30.s 			page 31


 514:Drivers/STM32G0xx_HAL_Driver/Src/stm32g0xx_hal_pwr_ex.c **** 
 515:Drivers/STM32G0xx_HAL_Driver/Src/stm32g0xx_hal_pwr_ex.c ****   return status;
 1233              		.loc 1 515 10
 1234 0082 0F23     		movs	r3, #15
 1235 0084 FB18     		adds	r3, r7, r3
 1236 0086 1B78     		ldrb	r3, [r3]
 516:Drivers/STM32G0xx_HAL_Driver/Src/stm32g0xx_hal_pwr_ex.c **** }
 1237              		.loc 1 516 1
 1238 0088 1800     		movs	r0, r3
 1239 008a BD46     		mov	sp, r7
 1240 008c 04B0     		add	sp, sp, #16
 1241              		@ sp needed
 1242 008e 80BD     		pop	{r7, pc}
 1243              	.L85:
 1244              		.align	2
 1245              	.L84:
 1246 0090 00000000 		.word	.L77
 1247 0094 00700040 		.word	1073770496
 1248 0098 FFBFFFFF 		.word	-16385
 1249              		.cfi_endproc
 1250              	.LFE380:
 1252              		.section	.text.HAL_PWREx_EnableGPIOPullDown,"ax",%progbits
 1253              		.align	1
 1254              		.global	HAL_PWREx_EnableGPIOPullDown
 1255              		.syntax unified
 1256              		.code	16
 1257              		.thumb_func
 1259              	HAL_PWREx_EnableGPIOPullDown:
 1260              	.LFB381:
 517:Drivers/STM32G0xx_HAL_Driver/Src/stm32g0xx_hal_pwr_ex.c **** 
 518:Drivers/STM32G0xx_HAL_Driver/Src/stm32g0xx_hal_pwr_ex.c **** 
 519:Drivers/STM32G0xx_HAL_Driver/Src/stm32g0xx_hal_pwr_ex.c **** /**
 520:Drivers/STM32G0xx_HAL_Driver/Src/stm32g0xx_hal_pwr_ex.c ****   * @brief  Enable GPIO pull-down state in Standby and Shutdown modes.
 521:Drivers/STM32G0xx_HAL_Driver/Src/stm32g0xx_hal_pwr_ex.c ****   * @note   Set the relevant PDy bit of PWR_PDCRx register to configure the I/O in
 522:Drivers/STM32G0xx_HAL_Driver/Src/stm32g0xx_hal_pwr_ex.c ****   *         pull-down state in Standby and Shutdown modes.
 523:Drivers/STM32G0xx_HAL_Driver/Src/stm32g0xx_hal_pwr_ex.c ****   * @note   This state is effective in Standby and Shutdown modes only if APC bit
 524:Drivers/STM32G0xx_HAL_Driver/Src/stm32g0xx_hal_pwr_ex.c ****   *         is set through HAL_PWREx_EnablePullUpPullDownConfig() API.
 525:Drivers/STM32G0xx_HAL_Driver/Src/stm32g0xx_hal_pwr_ex.c ****   * @note   The configuration is lost when exiting the Shutdown mode due to the
 526:Drivers/STM32G0xx_HAL_Driver/Src/stm32g0xx_hal_pwr_ex.c ****   *         power-on reset, maintained when exiting the Standby mode.
 527:Drivers/STM32G0xx_HAL_Driver/Src/stm32g0xx_hal_pwr_ex.c ****   * @note   To avoid any conflict at Standby and Shutdown modes exits, the corresponding
 528:Drivers/STM32G0xx_HAL_Driver/Src/stm32g0xx_hal_pwr_ex.c ****   *         PUy bit of PWR_PUCRx register is cleared unless it is reserved.
 529:Drivers/STM32G0xx_HAL_Driver/Src/stm32g0xx_hal_pwr_ex.c ****   * @param  GPIO Specify the IO port. This parameter can be PWR_GPIO_A..PWR_GPIO_F
 530:Drivers/STM32G0xx_HAL_Driver/Src/stm32g0xx_hal_pwr_ex.c ****   *         to select the GPIO peripheral.
 531:Drivers/STM32G0xx_HAL_Driver/Src/stm32g0xx_hal_pwr_ex.c ****   * @param  GPIONumber Specify the I/O pins numbers.
 532:Drivers/STM32G0xx_HAL_Driver/Src/stm32g0xx_hal_pwr_ex.c ****   *         This parameter can be one of the following values:
 533:Drivers/STM32G0xx_HAL_Driver/Src/stm32g0xx_hal_pwr_ex.c ****   *         PWR_GPIO_BIT_0, ..., PWR_GPIO_BIT_15 (except for ports where less
 534:Drivers/STM32G0xx_HAL_Driver/Src/stm32g0xx_hal_pwr_ex.c ****   *         I/O pins are available) or the logical OR of several of them to set
 535:Drivers/STM32G0xx_HAL_Driver/Src/stm32g0xx_hal_pwr_ex.c ****   *         several bits for a given port in a single API call.
 536:Drivers/STM32G0xx_HAL_Driver/Src/stm32g0xx_hal_pwr_ex.c ****   * @retval HAL Status
 537:Drivers/STM32G0xx_HAL_Driver/Src/stm32g0xx_hal_pwr_ex.c ****   */
 538:Drivers/STM32G0xx_HAL_Driver/Src/stm32g0xx_hal_pwr_ex.c **** HAL_StatusTypeDef HAL_PWREx_EnableGPIOPullDown(uint32_t GPIO, uint32_t GPIONumber)
 539:Drivers/STM32G0xx_HAL_Driver/Src/stm32g0xx_hal_pwr_ex.c **** {
 1261              		.loc 1 539 1
 1262              		.cfi_startproc
 1263              		@ args = 0, pretend = 0, frame = 16
 1264              		@ frame_needed = 1, uses_anonymous_args = 0
 1265 0000 80B5     		push	{r7, lr}
ARM GAS  C:\Users\ADMINI~1\AppData\Local\Temp\cc2Uyp30.s 			page 32


 1266              	.LCFI41:
 1267              		.cfi_def_cfa_offset 8
 1268              		.cfi_offset 7, -8
 1269              		.cfi_offset 14, -4
 1270 0002 84B0     		sub	sp, sp, #16
 1271              	.LCFI42:
 1272              		.cfi_def_cfa_offset 24
 1273 0004 00AF     		add	r7, sp, #0
 1274              	.LCFI43:
 1275              		.cfi_def_cfa_register 7
 1276 0006 7860     		str	r0, [r7, #4]
 1277 0008 3960     		str	r1, [r7]
 540:Drivers/STM32G0xx_HAL_Driver/Src/stm32g0xx_hal_pwr_ex.c ****   HAL_StatusTypeDef status = HAL_OK;
 1278              		.loc 1 540 21
 1279 000a 0F23     		movs	r3, #15
 1280 000c FB18     		adds	r3, r7, r3
 1281 000e 0022     		movs	r2, #0
 1282 0010 1A70     		strb	r2, [r3]
 541:Drivers/STM32G0xx_HAL_Driver/Src/stm32g0xx_hal_pwr_ex.c **** 
 542:Drivers/STM32G0xx_HAL_Driver/Src/stm32g0xx_hal_pwr_ex.c ****   assert_param(IS_PWR_GPIO(GPIO));
 543:Drivers/STM32G0xx_HAL_Driver/Src/stm32g0xx_hal_pwr_ex.c ****   assert_param(IS_PWR_GPIO_BIT_NUMBER(GPIONumber));
 544:Drivers/STM32G0xx_HAL_Driver/Src/stm32g0xx_hal_pwr_ex.c **** 
 545:Drivers/STM32G0xx_HAL_Driver/Src/stm32g0xx_hal_pwr_ex.c ****   switch (GPIO)
 1283              		.loc 1 545 3
 1284 0012 7B68     		ldr	r3, [r7, #4]
 1285 0014 052B     		cmp	r3, #5
 1286 0016 5DD8     		bhi	.L87
 1287 0018 7B68     		ldr	r3, [r7, #4]
 1288 001a 9A00     		lsls	r2, r3, #2
 1289 001c 334B     		ldr	r3, .L97
 1290 001e D318     		adds	r3, r2, r3
 1291 0020 1B68     		ldr	r3, [r3]
 1292 0022 9F46     		mov	pc, r3
 1293              		.section	.rodata.HAL_PWREx_EnableGPIOPullDown,"a",%progbits
 1294              		.align	2
 1295              	.L89:
 1296 0000 24000000 		.word	.L94
 1297 0004 48000000 		.word	.L93
 1298 0008 64000000 		.word	.L92
 1299 000c 80000000 		.word	.L91
 1300 0010 9C000000 		.word	.L90
 1301 0014 B8000000 		.word	.L88
 1302              		.section	.text.HAL_PWREx_EnableGPIOPullDown
 1303              	.L94:
 546:Drivers/STM32G0xx_HAL_Driver/Src/stm32g0xx_hal_pwr_ex.c ****   {
 547:Drivers/STM32G0xx_HAL_Driver/Src/stm32g0xx_hal_pwr_ex.c ****     case PWR_GPIO_A:
 548:Drivers/STM32G0xx_HAL_Driver/Src/stm32g0xx_hal_pwr_ex.c ****       SET_BIT(PWR->PDCRA, (GPIONumber & ~PWR_GPIO_BIT_13));
 1304              		.loc 1 548 7
 1305 0024 324B     		ldr	r3, .L97+4
 1306 0026 596A     		ldr	r1, [r3, #36]
 1307 0028 3B68     		ldr	r3, [r7]
 1308 002a 324A     		ldr	r2, .L97+8
 1309 002c 1A40     		ands	r2, r3
 1310 002e 304B     		ldr	r3, .L97+4
 1311 0030 0A43     		orrs	r2, r1
 1312 0032 5A62     		str	r2, [r3, #36]
 549:Drivers/STM32G0xx_HAL_Driver/Src/stm32g0xx_hal_pwr_ex.c ****       CLEAR_BIT(PWR->PUCRA, (GPIONumber & ~PWR_GPIO_BIT_14));
ARM GAS  C:\Users\ADMINI~1\AppData\Local\Temp\cc2Uyp30.s 			page 33


 1313              		.loc 1 549 7
 1314 0034 2E4B     		ldr	r3, .L97+4
 1315 0036 1A6A     		ldr	r2, [r3, #32]
 1316 0038 3B68     		ldr	r3, [r7]
 1317 003a 2F49     		ldr	r1, .L97+12
 1318 003c 0B40     		ands	r3, r1
 1319 003e D943     		mvns	r1, r3
 1320 0040 2B4B     		ldr	r3, .L97+4
 1321 0042 0A40     		ands	r2, r1
 1322 0044 1A62     		str	r2, [r3, #32]
 550:Drivers/STM32G0xx_HAL_Driver/Src/stm32g0xx_hal_pwr_ex.c ****       break;
 1323              		.loc 1 550 7
 1324 0046 4AE0     		b	.L95
 1325              	.L93:
 551:Drivers/STM32G0xx_HAL_Driver/Src/stm32g0xx_hal_pwr_ex.c **** 
 552:Drivers/STM32G0xx_HAL_Driver/Src/stm32g0xx_hal_pwr_ex.c ****     case PWR_GPIO_B:
 553:Drivers/STM32G0xx_HAL_Driver/Src/stm32g0xx_hal_pwr_ex.c ****       SET_BIT(PWR->PDCRB, GPIONumber);
 1326              		.loc 1 553 7
 1327 0048 294B     		ldr	r3, .L97+4
 1328 004a D96A     		ldr	r1, [r3, #44]
 1329 004c 284B     		ldr	r3, .L97+4
 1330 004e 3A68     		ldr	r2, [r7]
 1331 0050 0A43     		orrs	r2, r1
 1332 0052 DA62     		str	r2, [r3, #44]
 554:Drivers/STM32G0xx_HAL_Driver/Src/stm32g0xx_hal_pwr_ex.c ****       CLEAR_BIT(PWR->PUCRB, GPIONumber);
 1333              		.loc 1 554 7
 1334 0054 264B     		ldr	r3, .L97+4
 1335 0056 9A6A     		ldr	r2, [r3, #40]
 1336 0058 3B68     		ldr	r3, [r7]
 1337 005a D943     		mvns	r1, r3
 1338 005c 244B     		ldr	r3, .L97+4
 1339 005e 0A40     		ands	r2, r1
 1340 0060 9A62     		str	r2, [r3, #40]
 555:Drivers/STM32G0xx_HAL_Driver/Src/stm32g0xx_hal_pwr_ex.c ****       break;
 1341              		.loc 1 555 7
 1342 0062 3CE0     		b	.L95
 1343              	.L92:
 556:Drivers/STM32G0xx_HAL_Driver/Src/stm32g0xx_hal_pwr_ex.c **** 
 557:Drivers/STM32G0xx_HAL_Driver/Src/stm32g0xx_hal_pwr_ex.c ****     case PWR_GPIO_C:
 558:Drivers/STM32G0xx_HAL_Driver/Src/stm32g0xx_hal_pwr_ex.c ****       SET_BIT(PWR->PDCRC, GPIONumber);
 1344              		.loc 1 558 7
 1345 0064 224B     		ldr	r3, .L97+4
 1346 0066 596B     		ldr	r1, [r3, #52]
 1347 0068 214B     		ldr	r3, .L97+4
 1348 006a 3A68     		ldr	r2, [r7]
 1349 006c 0A43     		orrs	r2, r1
 1350 006e 5A63     		str	r2, [r3, #52]
 559:Drivers/STM32G0xx_HAL_Driver/Src/stm32g0xx_hal_pwr_ex.c ****       CLEAR_BIT(PWR->PUCRC, GPIONumber);
 1351              		.loc 1 559 7
 1352 0070 1F4B     		ldr	r3, .L97+4
 1353 0072 1A6B     		ldr	r2, [r3, #48]
 1354 0074 3B68     		ldr	r3, [r7]
 1355 0076 D943     		mvns	r1, r3
 1356 0078 1D4B     		ldr	r3, .L97+4
 1357 007a 0A40     		ands	r2, r1
 1358 007c 1A63     		str	r2, [r3, #48]
 560:Drivers/STM32G0xx_HAL_Driver/Src/stm32g0xx_hal_pwr_ex.c ****       break;
ARM GAS  C:\Users\ADMINI~1\AppData\Local\Temp\cc2Uyp30.s 			page 34


 1359              		.loc 1 560 7
 1360 007e 2EE0     		b	.L95
 1361              	.L91:
 561:Drivers/STM32G0xx_HAL_Driver/Src/stm32g0xx_hal_pwr_ex.c **** 
 562:Drivers/STM32G0xx_HAL_Driver/Src/stm32g0xx_hal_pwr_ex.c ****     case PWR_GPIO_D:
 563:Drivers/STM32G0xx_HAL_Driver/Src/stm32g0xx_hal_pwr_ex.c ****       SET_BIT(PWR->PDCRD, GPIONumber);
 1362              		.loc 1 563 7
 1363 0080 1B4B     		ldr	r3, .L97+4
 1364 0082 D96B     		ldr	r1, [r3, #60]
 1365 0084 1A4B     		ldr	r3, .L97+4
 1366 0086 3A68     		ldr	r2, [r7]
 1367 0088 0A43     		orrs	r2, r1
 1368 008a DA63     		str	r2, [r3, #60]
 564:Drivers/STM32G0xx_HAL_Driver/Src/stm32g0xx_hal_pwr_ex.c ****       CLEAR_BIT(PWR->PUCRD, GPIONumber);
 1369              		.loc 1 564 7
 1370 008c 184B     		ldr	r3, .L97+4
 1371 008e 9A6B     		ldr	r2, [r3, #56]
 1372 0090 3B68     		ldr	r3, [r7]
 1373 0092 D943     		mvns	r1, r3
 1374 0094 164B     		ldr	r3, .L97+4
 1375 0096 0A40     		ands	r2, r1
 1376 0098 9A63     		str	r2, [r3, #56]
 565:Drivers/STM32G0xx_HAL_Driver/Src/stm32g0xx_hal_pwr_ex.c ****       break;
 1377              		.loc 1 565 7
 1378 009a 20E0     		b	.L95
 1379              	.L90:
 566:Drivers/STM32G0xx_HAL_Driver/Src/stm32g0xx_hal_pwr_ex.c **** 
 567:Drivers/STM32G0xx_HAL_Driver/Src/stm32g0xx_hal_pwr_ex.c **** #if defined(GPIOE)
 568:Drivers/STM32G0xx_HAL_Driver/Src/stm32g0xx_hal_pwr_ex.c ****     case PWR_GPIO_E:
 569:Drivers/STM32G0xx_HAL_Driver/Src/stm32g0xx_hal_pwr_ex.c ****       SET_BIT(PWR->PDCRE, GPIONumber);
 1380              		.loc 1 569 7
 1381 009c 144B     		ldr	r3, .L97+4
 1382 009e 596C     		ldr	r1, [r3, #68]
 1383 00a0 134B     		ldr	r3, .L97+4
 1384 00a2 3A68     		ldr	r2, [r7]
 1385 00a4 0A43     		orrs	r2, r1
 1386 00a6 5A64     		str	r2, [r3, #68]
 570:Drivers/STM32G0xx_HAL_Driver/Src/stm32g0xx_hal_pwr_ex.c ****       CLEAR_BIT(PWR->PUCRE, GPIONumber);
 1387              		.loc 1 570 7
 1388 00a8 114B     		ldr	r3, .L97+4
 1389 00aa 1A6C     		ldr	r2, [r3, #64]
 1390 00ac 3B68     		ldr	r3, [r7]
 1391 00ae D943     		mvns	r1, r3
 1392 00b0 0F4B     		ldr	r3, .L97+4
 1393 00b2 0A40     		ands	r2, r1
 1394 00b4 1A64     		str	r2, [r3, #64]
 571:Drivers/STM32G0xx_HAL_Driver/Src/stm32g0xx_hal_pwr_ex.c ****       break;
 1395              		.loc 1 571 7
 1396 00b6 12E0     		b	.L95
 1397              	.L88:
 572:Drivers/STM32G0xx_HAL_Driver/Src/stm32g0xx_hal_pwr_ex.c **** #endif /* GPI0E */
 573:Drivers/STM32G0xx_HAL_Driver/Src/stm32g0xx_hal_pwr_ex.c ****     case PWR_GPIO_F:
 574:Drivers/STM32G0xx_HAL_Driver/Src/stm32g0xx_hal_pwr_ex.c ****       SET_BIT(PWR->PDCRF, GPIONumber);
 1398              		.loc 1 574 7
 1399 00b8 0D4B     		ldr	r3, .L97+4
 1400 00ba D96C     		ldr	r1, [r3, #76]
 1401 00bc 0C4B     		ldr	r3, .L97+4
ARM GAS  C:\Users\ADMINI~1\AppData\Local\Temp\cc2Uyp30.s 			page 35


 1402 00be 3A68     		ldr	r2, [r7]
 1403 00c0 0A43     		orrs	r2, r1
 1404 00c2 DA64     		str	r2, [r3, #76]
 575:Drivers/STM32G0xx_HAL_Driver/Src/stm32g0xx_hal_pwr_ex.c ****       CLEAR_BIT(PWR->PUCRF, GPIONumber);
 1405              		.loc 1 575 7
 1406 00c4 0A4B     		ldr	r3, .L97+4
 1407 00c6 9A6C     		ldr	r2, [r3, #72]
 1408 00c8 3B68     		ldr	r3, [r7]
 1409 00ca D943     		mvns	r1, r3
 1410 00cc 084B     		ldr	r3, .L97+4
 1411 00ce 0A40     		ands	r2, r1
 1412 00d0 9A64     		str	r2, [r3, #72]
 576:Drivers/STM32G0xx_HAL_Driver/Src/stm32g0xx_hal_pwr_ex.c ****       break;
 1413              		.loc 1 576 7
 1414 00d2 04E0     		b	.L95
 1415              	.L87:
 577:Drivers/STM32G0xx_HAL_Driver/Src/stm32g0xx_hal_pwr_ex.c **** 
 578:Drivers/STM32G0xx_HAL_Driver/Src/stm32g0xx_hal_pwr_ex.c ****     default:
 579:Drivers/STM32G0xx_HAL_Driver/Src/stm32g0xx_hal_pwr_ex.c ****       status = HAL_ERROR;
 1416              		.loc 1 579 14
 1417 00d4 0F23     		movs	r3, #15
 1418 00d6 FB18     		adds	r3, r7, r3
 1419 00d8 0122     		movs	r2, #1
 1420 00da 1A70     		strb	r2, [r3]
 580:Drivers/STM32G0xx_HAL_Driver/Src/stm32g0xx_hal_pwr_ex.c ****       break;
 1421              		.loc 1 580 7
 1422 00dc C046     		nop
 1423              	.L95:
 581:Drivers/STM32G0xx_HAL_Driver/Src/stm32g0xx_hal_pwr_ex.c ****   }
 582:Drivers/STM32G0xx_HAL_Driver/Src/stm32g0xx_hal_pwr_ex.c **** 
 583:Drivers/STM32G0xx_HAL_Driver/Src/stm32g0xx_hal_pwr_ex.c ****   return status;
 1424              		.loc 1 583 10
 1425 00de 0F23     		movs	r3, #15
 1426 00e0 FB18     		adds	r3, r7, r3
 1427 00e2 1B78     		ldrb	r3, [r3]
 584:Drivers/STM32G0xx_HAL_Driver/Src/stm32g0xx_hal_pwr_ex.c **** }
 1428              		.loc 1 584 1
 1429 00e4 1800     		movs	r0, r3
 1430 00e6 BD46     		mov	sp, r7
 1431 00e8 04B0     		add	sp, sp, #16
 1432              		@ sp needed
 1433 00ea 80BD     		pop	{r7, pc}
 1434              	.L98:
 1435              		.align	2
 1436              	.L97:
 1437 00ec 00000000 		.word	.L89
 1438 00f0 00700040 		.word	1073770496
 1439 00f4 FFDFFFFF 		.word	-8193
 1440 00f8 FFBFFFFF 		.word	-16385
 1441              		.cfi_endproc
 1442              	.LFE381:
 1444              		.section	.text.HAL_PWREx_DisableGPIOPullDown,"ax",%progbits
 1445              		.align	1
 1446              		.global	HAL_PWREx_DisableGPIOPullDown
 1447              		.syntax unified
 1448              		.code	16
 1449              		.thumb_func
ARM GAS  C:\Users\ADMINI~1\AppData\Local\Temp\cc2Uyp30.s 			page 36


 1451              	HAL_PWREx_DisableGPIOPullDown:
 1452              	.LFB382:
 585:Drivers/STM32G0xx_HAL_Driver/Src/stm32g0xx_hal_pwr_ex.c **** 
 586:Drivers/STM32G0xx_HAL_Driver/Src/stm32g0xx_hal_pwr_ex.c **** 
 587:Drivers/STM32G0xx_HAL_Driver/Src/stm32g0xx_hal_pwr_ex.c **** /**
 588:Drivers/STM32G0xx_HAL_Driver/Src/stm32g0xx_hal_pwr_ex.c ****   * @brief  Disable GPIO pull-down state in Standby and Shutdown modes.
 589:Drivers/STM32G0xx_HAL_Driver/Src/stm32g0xx_hal_pwr_ex.c ****   * @note   Reset the relevant PDy bit of PWR_PDCRx register used to configure the I/O
 590:Drivers/STM32G0xx_HAL_Driver/Src/stm32g0xx_hal_pwr_ex.c ****   *         in pull-down state in Standby and Shutdown modes.
 591:Drivers/STM32G0xx_HAL_Driver/Src/stm32g0xx_hal_pwr_ex.c ****   * @param  GPIO Specifies the IO port. This parameter can be PWR_GPIO_A..PWR_GPIO_F
 592:Drivers/STM32G0xx_HAL_Driver/Src/stm32g0xx_hal_pwr_ex.c ****   *         to select the GPIO peripheral.
 593:Drivers/STM32G0xx_HAL_Driver/Src/stm32g0xx_hal_pwr_ex.c ****   * @param  GPIONumber Specify the I/O pins numbers.
 594:Drivers/STM32G0xx_HAL_Driver/Src/stm32g0xx_hal_pwr_ex.c ****   *         This parameter can be one of the following values:
 595:Drivers/STM32G0xx_HAL_Driver/Src/stm32g0xx_hal_pwr_ex.c ****   *         PWR_GPIO_BIT_0, ..., PWR_GPIO_BIT_15 (except for ports where less
 596:Drivers/STM32G0xx_HAL_Driver/Src/stm32g0xx_hal_pwr_ex.c ****   *         I/O pins are available) or the logical OR of several of them to reset
 597:Drivers/STM32G0xx_HAL_Driver/Src/stm32g0xx_hal_pwr_ex.c ****   *         several bits for a given port in a single API call.
 598:Drivers/STM32G0xx_HAL_Driver/Src/stm32g0xx_hal_pwr_ex.c ****   * @retval HAL Status
 599:Drivers/STM32G0xx_HAL_Driver/Src/stm32g0xx_hal_pwr_ex.c ****   */
 600:Drivers/STM32G0xx_HAL_Driver/Src/stm32g0xx_hal_pwr_ex.c **** HAL_StatusTypeDef HAL_PWREx_DisableGPIOPullDown(uint32_t GPIO, uint32_t GPIONumber)
 601:Drivers/STM32G0xx_HAL_Driver/Src/stm32g0xx_hal_pwr_ex.c **** {
 1453              		.loc 1 601 1
 1454              		.cfi_startproc
 1455              		@ args = 0, pretend = 0, frame = 16
 1456              		@ frame_needed = 1, uses_anonymous_args = 0
 1457 0000 80B5     		push	{r7, lr}
 1458              	.LCFI44:
 1459              		.cfi_def_cfa_offset 8
 1460              		.cfi_offset 7, -8
 1461              		.cfi_offset 14, -4
 1462 0002 84B0     		sub	sp, sp, #16
 1463              	.LCFI45:
 1464              		.cfi_def_cfa_offset 24
 1465 0004 00AF     		add	r7, sp, #0
 1466              	.LCFI46:
 1467              		.cfi_def_cfa_register 7
 1468 0006 7860     		str	r0, [r7, #4]
 1469 0008 3960     		str	r1, [r7]
 602:Drivers/STM32G0xx_HAL_Driver/Src/stm32g0xx_hal_pwr_ex.c ****   HAL_StatusTypeDef status = HAL_OK;
 1470              		.loc 1 602 21
 1471 000a 0F23     		movs	r3, #15
 1472 000c FB18     		adds	r3, r7, r3
 1473 000e 0022     		movs	r2, #0
 1474 0010 1A70     		strb	r2, [r3]
 603:Drivers/STM32G0xx_HAL_Driver/Src/stm32g0xx_hal_pwr_ex.c **** 
 604:Drivers/STM32G0xx_HAL_Driver/Src/stm32g0xx_hal_pwr_ex.c ****   assert_param(IS_PWR_GPIO(GPIO));
 605:Drivers/STM32G0xx_HAL_Driver/Src/stm32g0xx_hal_pwr_ex.c ****   assert_param(IS_PWR_GPIO_BIT_NUMBER(GPIONumber));
 606:Drivers/STM32G0xx_HAL_Driver/Src/stm32g0xx_hal_pwr_ex.c **** 
 607:Drivers/STM32G0xx_HAL_Driver/Src/stm32g0xx_hal_pwr_ex.c ****   switch (GPIO)
 1475              		.loc 1 607 3
 1476 0012 7B68     		ldr	r3, [r7, #4]
 1477 0014 052B     		cmp	r3, #5
 1478 0016 37D8     		bhi	.L100
 1479 0018 7B68     		ldr	r3, [r7, #4]
 1480 001a 9A00     		lsls	r2, r3, #2
 1481 001c 204B     		ldr	r3, .L110
 1482 001e D318     		adds	r3, r2, r3
 1483 0020 1B68     		ldr	r3, [r3]
 1484 0022 9F46     		mov	pc, r3
ARM GAS  C:\Users\ADMINI~1\AppData\Local\Temp\cc2Uyp30.s 			page 37


 1485              		.section	.rodata.HAL_PWREx_DisableGPIOPullDown,"a",%progbits
 1486              		.align	2
 1487              	.L102:
 1488 0000 24000000 		.word	.L107
 1489 0004 38000000 		.word	.L106
 1490 0008 48000000 		.word	.L105
 1491 000c 58000000 		.word	.L104
 1492 0010 68000000 		.word	.L103
 1493 0014 78000000 		.word	.L101
 1494              		.section	.text.HAL_PWREx_DisableGPIOPullDown
 1495              	.L107:
 608:Drivers/STM32G0xx_HAL_Driver/Src/stm32g0xx_hal_pwr_ex.c ****   {
 609:Drivers/STM32G0xx_HAL_Driver/Src/stm32g0xx_hal_pwr_ex.c ****     case PWR_GPIO_A:
 610:Drivers/STM32G0xx_HAL_Driver/Src/stm32g0xx_hal_pwr_ex.c ****       CLEAR_BIT(PWR->PDCRA, (GPIONumber & ~PWR_GPIO_BIT_13));
 1496              		.loc 1 610 7
 1497 0024 1F4B     		ldr	r3, .L110+4
 1498 0026 5A6A     		ldr	r2, [r3, #36]
 1499 0028 3B68     		ldr	r3, [r7]
 1500 002a 1F49     		ldr	r1, .L110+8
 1501 002c 0B40     		ands	r3, r1
 1502 002e D943     		mvns	r1, r3
 1503 0030 1C4B     		ldr	r3, .L110+4
 1504 0032 0A40     		ands	r2, r1
 1505 0034 5A62     		str	r2, [r3, #36]
 611:Drivers/STM32G0xx_HAL_Driver/Src/stm32g0xx_hal_pwr_ex.c ****       break;
 1506              		.loc 1 611 7
 1507 0036 2CE0     		b	.L108
 1508              	.L106:
 612:Drivers/STM32G0xx_HAL_Driver/Src/stm32g0xx_hal_pwr_ex.c **** 
 613:Drivers/STM32G0xx_HAL_Driver/Src/stm32g0xx_hal_pwr_ex.c ****     case PWR_GPIO_B:
 614:Drivers/STM32G0xx_HAL_Driver/Src/stm32g0xx_hal_pwr_ex.c ****       CLEAR_BIT(PWR->PDCRB, GPIONumber);
 1509              		.loc 1 614 7
 1510 0038 1A4B     		ldr	r3, .L110+4
 1511 003a DA6A     		ldr	r2, [r3, #44]
 1512 003c 3B68     		ldr	r3, [r7]
 1513 003e D943     		mvns	r1, r3
 1514 0040 184B     		ldr	r3, .L110+4
 1515 0042 0A40     		ands	r2, r1
 1516 0044 DA62     		str	r2, [r3, #44]
 615:Drivers/STM32G0xx_HAL_Driver/Src/stm32g0xx_hal_pwr_ex.c ****       break;
 1517              		.loc 1 615 7
 1518 0046 24E0     		b	.L108
 1519              	.L105:
 616:Drivers/STM32G0xx_HAL_Driver/Src/stm32g0xx_hal_pwr_ex.c **** 
 617:Drivers/STM32G0xx_HAL_Driver/Src/stm32g0xx_hal_pwr_ex.c ****     case PWR_GPIO_C:
 618:Drivers/STM32G0xx_HAL_Driver/Src/stm32g0xx_hal_pwr_ex.c ****       CLEAR_BIT(PWR->PDCRC, GPIONumber);
 1520              		.loc 1 618 7
 1521 0048 164B     		ldr	r3, .L110+4
 1522 004a 5A6B     		ldr	r2, [r3, #52]
 1523 004c 3B68     		ldr	r3, [r7]
 1524 004e D943     		mvns	r1, r3
 1525 0050 144B     		ldr	r3, .L110+4
 1526 0052 0A40     		ands	r2, r1
 1527 0054 5A63     		str	r2, [r3, #52]
 619:Drivers/STM32G0xx_HAL_Driver/Src/stm32g0xx_hal_pwr_ex.c ****       break;
 1528              		.loc 1 619 7
 1529 0056 1CE0     		b	.L108
ARM GAS  C:\Users\ADMINI~1\AppData\Local\Temp\cc2Uyp30.s 			page 38


 1530              	.L104:
 620:Drivers/STM32G0xx_HAL_Driver/Src/stm32g0xx_hal_pwr_ex.c **** 
 621:Drivers/STM32G0xx_HAL_Driver/Src/stm32g0xx_hal_pwr_ex.c ****     case PWR_GPIO_D:
 622:Drivers/STM32G0xx_HAL_Driver/Src/stm32g0xx_hal_pwr_ex.c ****       CLEAR_BIT(PWR->PDCRD, GPIONumber);
 1531              		.loc 1 622 7
 1532 0058 124B     		ldr	r3, .L110+4
 1533 005a DA6B     		ldr	r2, [r3, #60]
 1534 005c 3B68     		ldr	r3, [r7]
 1535 005e D943     		mvns	r1, r3
 1536 0060 104B     		ldr	r3, .L110+4
 1537 0062 0A40     		ands	r2, r1
 1538 0064 DA63     		str	r2, [r3, #60]
 623:Drivers/STM32G0xx_HAL_Driver/Src/stm32g0xx_hal_pwr_ex.c ****       break;
 1539              		.loc 1 623 7
 1540 0066 14E0     		b	.L108
 1541              	.L103:
 624:Drivers/STM32G0xx_HAL_Driver/Src/stm32g0xx_hal_pwr_ex.c **** 
 625:Drivers/STM32G0xx_HAL_Driver/Src/stm32g0xx_hal_pwr_ex.c **** #if defined(GPIOE)
 626:Drivers/STM32G0xx_HAL_Driver/Src/stm32g0xx_hal_pwr_ex.c ****     case PWR_GPIO_E:
 627:Drivers/STM32G0xx_HAL_Driver/Src/stm32g0xx_hal_pwr_ex.c ****       CLEAR_BIT(PWR->PDCRE, GPIONumber);
 1542              		.loc 1 627 7
 1543 0068 0E4B     		ldr	r3, .L110+4
 1544 006a 5A6C     		ldr	r2, [r3, #68]
 1545 006c 3B68     		ldr	r3, [r7]
 1546 006e D943     		mvns	r1, r3
 1547 0070 0C4B     		ldr	r3, .L110+4
 1548 0072 0A40     		ands	r2, r1
 1549 0074 5A64     		str	r2, [r3, #68]
 628:Drivers/STM32G0xx_HAL_Driver/Src/stm32g0xx_hal_pwr_ex.c ****       break;
 1550              		.loc 1 628 7
 1551 0076 0CE0     		b	.L108
 1552              	.L101:
 629:Drivers/STM32G0xx_HAL_Driver/Src/stm32g0xx_hal_pwr_ex.c **** #endif /* GPI0E */
 630:Drivers/STM32G0xx_HAL_Driver/Src/stm32g0xx_hal_pwr_ex.c ****     case PWR_GPIO_F:
 631:Drivers/STM32G0xx_HAL_Driver/Src/stm32g0xx_hal_pwr_ex.c ****       CLEAR_BIT(PWR->PDCRF, GPIONumber);
 1553              		.loc 1 631 7
 1554 0078 0A4B     		ldr	r3, .L110+4
 1555 007a DA6C     		ldr	r2, [r3, #76]
 1556 007c 3B68     		ldr	r3, [r7]
 1557 007e D943     		mvns	r1, r3
 1558 0080 084B     		ldr	r3, .L110+4
 1559 0082 0A40     		ands	r2, r1
 1560 0084 DA64     		str	r2, [r3, #76]
 632:Drivers/STM32G0xx_HAL_Driver/Src/stm32g0xx_hal_pwr_ex.c ****       break;
 1561              		.loc 1 632 7
 1562 0086 04E0     		b	.L108
 1563              	.L100:
 633:Drivers/STM32G0xx_HAL_Driver/Src/stm32g0xx_hal_pwr_ex.c **** 
 634:Drivers/STM32G0xx_HAL_Driver/Src/stm32g0xx_hal_pwr_ex.c ****     default:
 635:Drivers/STM32G0xx_HAL_Driver/Src/stm32g0xx_hal_pwr_ex.c ****       status = HAL_ERROR;
 1564              		.loc 1 635 14
 1565 0088 0F23     		movs	r3, #15
 1566 008a FB18     		adds	r3, r7, r3
 1567 008c 0122     		movs	r2, #1
 1568 008e 1A70     		strb	r2, [r3]
 636:Drivers/STM32G0xx_HAL_Driver/Src/stm32g0xx_hal_pwr_ex.c ****       break;
 1569              		.loc 1 636 7
ARM GAS  C:\Users\ADMINI~1\AppData\Local\Temp\cc2Uyp30.s 			page 39


 1570 0090 C046     		nop
 1571              	.L108:
 637:Drivers/STM32G0xx_HAL_Driver/Src/stm32g0xx_hal_pwr_ex.c ****   }
 638:Drivers/STM32G0xx_HAL_Driver/Src/stm32g0xx_hal_pwr_ex.c **** 
 639:Drivers/STM32G0xx_HAL_Driver/Src/stm32g0xx_hal_pwr_ex.c ****   return status;
 1572              		.loc 1 639 10
 1573 0092 0F23     		movs	r3, #15
 1574 0094 FB18     		adds	r3, r7, r3
 1575 0096 1B78     		ldrb	r3, [r3]
 640:Drivers/STM32G0xx_HAL_Driver/Src/stm32g0xx_hal_pwr_ex.c **** }
 1576              		.loc 1 640 1
 1577 0098 1800     		movs	r0, r3
 1578 009a BD46     		mov	sp, r7
 1579 009c 04B0     		add	sp, sp, #16
 1580              		@ sp needed
 1581 009e 80BD     		pop	{r7, pc}
 1582              	.L111:
 1583              		.align	2
 1584              	.L110:
 1585 00a0 00000000 		.word	.L102
 1586 00a4 00700040 		.word	1073770496
 1587 00a8 FFDFFFFF 		.word	-8193
 1588              		.cfi_endproc
 1589              	.LFE382:
 1591              		.section	.text.HAL_PWREx_EnablePullUpPullDownConfig,"ax",%progbits
 1592              		.align	1
 1593              		.global	HAL_PWREx_EnablePullUpPullDownConfig
 1594              		.syntax unified
 1595              		.code	16
 1596              		.thumb_func
 1598              	HAL_PWREx_EnablePullUpPullDownConfig:
 1599              	.LFB383:
 641:Drivers/STM32G0xx_HAL_Driver/Src/stm32g0xx_hal_pwr_ex.c **** 
 642:Drivers/STM32G0xx_HAL_Driver/Src/stm32g0xx_hal_pwr_ex.c **** 
 643:Drivers/STM32G0xx_HAL_Driver/Src/stm32g0xx_hal_pwr_ex.c **** /**
 644:Drivers/STM32G0xx_HAL_Driver/Src/stm32g0xx_hal_pwr_ex.c ****   * @brief  Enable pull-up and pull-down configuration.
 645:Drivers/STM32G0xx_HAL_Driver/Src/stm32g0xx_hal_pwr_ex.c ****   * @note   When APC bit is set, the I/O pull-up and pull-down configurations defined in
 646:Drivers/STM32G0xx_HAL_Driver/Src/stm32g0xx_hal_pwr_ex.c ****   *         PWR_PUCRx and PWR_PDCRx registers are applied in Standby and Shutdown modes.
 647:Drivers/STM32G0xx_HAL_Driver/Src/stm32g0xx_hal_pwr_ex.c ****   * @note   Pull-up set by PUy bit of PWR_PUCRx register is not activated if the corresponding
 648:Drivers/STM32G0xx_HAL_Driver/Src/stm32g0xx_hal_pwr_ex.c ****   *         PDy bit of PWR_PDCRx register is also set (pull-down configuration priority is higher).
 649:Drivers/STM32G0xx_HAL_Driver/Src/stm32g0xx_hal_pwr_ex.c ****   *         HAL_PWREx_EnableGPIOPullUp() and HAL_PWREx_EnableGPIOPullDown() APIs ensure there
 650:Drivers/STM32G0xx_HAL_Driver/Src/stm32g0xx_hal_pwr_ex.c ****   *         is no conflict when setting PUy or PDy bit.
 651:Drivers/STM32G0xx_HAL_Driver/Src/stm32g0xx_hal_pwr_ex.c ****   * @retval None
 652:Drivers/STM32G0xx_HAL_Driver/Src/stm32g0xx_hal_pwr_ex.c ****   */
 653:Drivers/STM32G0xx_HAL_Driver/Src/stm32g0xx_hal_pwr_ex.c **** void HAL_PWREx_EnablePullUpPullDownConfig(void)
 654:Drivers/STM32G0xx_HAL_Driver/Src/stm32g0xx_hal_pwr_ex.c **** {
 1600              		.loc 1 654 1
 1601              		.cfi_startproc
 1602              		@ args = 0, pretend = 0, frame = 0
 1603              		@ frame_needed = 1, uses_anonymous_args = 0
 1604 0000 80B5     		push	{r7, lr}
 1605              	.LCFI47:
 1606              		.cfi_def_cfa_offset 8
 1607              		.cfi_offset 7, -8
 1608              		.cfi_offset 14, -4
 1609 0002 00AF     		add	r7, sp, #0
 1610              	.LCFI48:
ARM GAS  C:\Users\ADMINI~1\AppData\Local\Temp\cc2Uyp30.s 			page 40


 1611              		.cfi_def_cfa_register 7
 655:Drivers/STM32G0xx_HAL_Driver/Src/stm32g0xx_hal_pwr_ex.c ****   SET_BIT(PWR->CR3, PWR_CR3_APC);
 1612              		.loc 1 655 3
 1613 0004 044B     		ldr	r3, .L113
 1614 0006 9A68     		ldr	r2, [r3, #8]
 1615 0008 034B     		ldr	r3, .L113
 1616 000a 8021     		movs	r1, #128
 1617 000c C900     		lsls	r1, r1, #3
 1618 000e 0A43     		orrs	r2, r1
 1619 0010 9A60     		str	r2, [r3, #8]
 656:Drivers/STM32G0xx_HAL_Driver/Src/stm32g0xx_hal_pwr_ex.c **** }
 1620              		.loc 1 656 1
 1621 0012 C046     		nop
 1622 0014 BD46     		mov	sp, r7
 1623              		@ sp needed
 1624 0016 80BD     		pop	{r7, pc}
 1625              	.L114:
 1626              		.align	2
 1627              	.L113:
 1628 0018 00700040 		.word	1073770496
 1629              		.cfi_endproc
 1630              	.LFE383:
 1632              		.section	.text.HAL_PWREx_DisablePullUpPullDownConfig,"ax",%progbits
 1633              		.align	1
 1634              		.global	HAL_PWREx_DisablePullUpPullDownConfig
 1635              		.syntax unified
 1636              		.code	16
 1637              		.thumb_func
 1639              	HAL_PWREx_DisablePullUpPullDownConfig:
 1640              	.LFB384:
 657:Drivers/STM32G0xx_HAL_Driver/Src/stm32g0xx_hal_pwr_ex.c **** 
 658:Drivers/STM32G0xx_HAL_Driver/Src/stm32g0xx_hal_pwr_ex.c **** /**
 659:Drivers/STM32G0xx_HAL_Driver/Src/stm32g0xx_hal_pwr_ex.c ****   * @brief  Disable pull-up and pull-down configuration.
 660:Drivers/STM32G0xx_HAL_Driver/Src/stm32g0xx_hal_pwr_ex.c ****   * @note   When APC bit is cleared, the I/O pull-up and pull-down configurations defined in
 661:Drivers/STM32G0xx_HAL_Driver/Src/stm32g0xx_hal_pwr_ex.c ****   *         PWR_PUCRx and PWR_PDCRx registers are not applied in Standby and Shutdown modes.
 662:Drivers/STM32G0xx_HAL_Driver/Src/stm32g0xx_hal_pwr_ex.c ****   * @retval None
 663:Drivers/STM32G0xx_HAL_Driver/Src/stm32g0xx_hal_pwr_ex.c ****   */
 664:Drivers/STM32G0xx_HAL_Driver/Src/stm32g0xx_hal_pwr_ex.c **** void HAL_PWREx_DisablePullUpPullDownConfig(void)
 665:Drivers/STM32G0xx_HAL_Driver/Src/stm32g0xx_hal_pwr_ex.c **** {
 1641              		.loc 1 665 1
 1642              		.cfi_startproc
 1643              		@ args = 0, pretend = 0, frame = 0
 1644              		@ frame_needed = 1, uses_anonymous_args = 0
 1645 0000 80B5     		push	{r7, lr}
 1646              	.LCFI49:
 1647              		.cfi_def_cfa_offset 8
 1648              		.cfi_offset 7, -8
 1649              		.cfi_offset 14, -4
 1650 0002 00AF     		add	r7, sp, #0
 1651              	.LCFI50:
 1652              		.cfi_def_cfa_register 7
 666:Drivers/STM32G0xx_HAL_Driver/Src/stm32g0xx_hal_pwr_ex.c ****   CLEAR_BIT(PWR->CR3, PWR_CR3_APC);
 1653              		.loc 1 666 3
 1654 0004 044B     		ldr	r3, .L116
 1655 0006 9A68     		ldr	r2, [r3, #8]
 1656 0008 034B     		ldr	r3, .L116
 1657 000a 0449     		ldr	r1, .L116+4
ARM GAS  C:\Users\ADMINI~1\AppData\Local\Temp\cc2Uyp30.s 			page 41


 1658 000c 0A40     		ands	r2, r1
 1659 000e 9A60     		str	r2, [r3, #8]
 667:Drivers/STM32G0xx_HAL_Driver/Src/stm32g0xx_hal_pwr_ex.c **** }
 1660              		.loc 1 667 1
 1661 0010 C046     		nop
 1662 0012 BD46     		mov	sp, r7
 1663              		@ sp needed
 1664 0014 80BD     		pop	{r7, pc}
 1665              	.L117:
 1666 0016 C046     		.align	2
 1667              	.L116:
 1668 0018 00700040 		.word	1073770496
 1669 001c FFFBFFFF 		.word	-1025
 1670              		.cfi_endproc
 1671              	.LFE384:
 1673              		.section	.text.HAL_PWREx_EnableSRAMRetention,"ax",%progbits
 1674              		.align	1
 1675              		.global	HAL_PWREx_EnableSRAMRetention
 1676              		.syntax unified
 1677              		.code	16
 1678              		.thumb_func
 1680              	HAL_PWREx_EnableSRAMRetention:
 1681              	.LFB385:
 668:Drivers/STM32G0xx_HAL_Driver/Src/stm32g0xx_hal_pwr_ex.c **** 
 669:Drivers/STM32G0xx_HAL_Driver/Src/stm32g0xx_hal_pwr_ex.c **** #if defined(PWR_CR3_RRS)
 670:Drivers/STM32G0xx_HAL_Driver/Src/stm32g0xx_hal_pwr_ex.c **** /**
 671:Drivers/STM32G0xx_HAL_Driver/Src/stm32g0xx_hal_pwr_ex.c ****   * @brief Enable SRAM content retention in Standby mode.
 672:Drivers/STM32G0xx_HAL_Driver/Src/stm32g0xx_hal_pwr_ex.c ****   * @note  When RRS bit is set, SRAM is powered by the low-power regulator in
 673:Drivers/STM32G0xx_HAL_Driver/Src/stm32g0xx_hal_pwr_ex.c ****   *         Standby mode and its content is kept.
 674:Drivers/STM32G0xx_HAL_Driver/Src/stm32g0xx_hal_pwr_ex.c ****   * @retval None
 675:Drivers/STM32G0xx_HAL_Driver/Src/stm32g0xx_hal_pwr_ex.c ****   */
 676:Drivers/STM32G0xx_HAL_Driver/Src/stm32g0xx_hal_pwr_ex.c **** void HAL_PWREx_EnableSRAMRetention(void)
 677:Drivers/STM32G0xx_HAL_Driver/Src/stm32g0xx_hal_pwr_ex.c **** {
 1682              		.loc 1 677 1
 1683              		.cfi_startproc
 1684              		@ args = 0, pretend = 0, frame = 0
 1685              		@ frame_needed = 1, uses_anonymous_args = 0
 1686 0000 80B5     		push	{r7, lr}
 1687              	.LCFI51:
 1688              		.cfi_def_cfa_offset 8
 1689              		.cfi_offset 7, -8
 1690              		.cfi_offset 14, -4
 1691 0002 00AF     		add	r7, sp, #0
 1692              	.LCFI52:
 1693              		.cfi_def_cfa_register 7
 678:Drivers/STM32G0xx_HAL_Driver/Src/stm32g0xx_hal_pwr_ex.c ****   SET_BIT(PWR->CR3, PWR_CR3_RRS);
 1694              		.loc 1 678 3
 1695 0004 044B     		ldr	r3, .L119
 1696 0006 9A68     		ldr	r2, [r3, #8]
 1697 0008 034B     		ldr	r3, .L119
 1698 000a 8021     		movs	r1, #128
 1699 000c 4900     		lsls	r1, r1, #1
 1700 000e 0A43     		orrs	r2, r1
 1701 0010 9A60     		str	r2, [r3, #8]
 679:Drivers/STM32G0xx_HAL_Driver/Src/stm32g0xx_hal_pwr_ex.c **** }
 1702              		.loc 1 679 1
 1703 0012 C046     		nop
ARM GAS  C:\Users\ADMINI~1\AppData\Local\Temp\cc2Uyp30.s 			page 42


 1704 0014 BD46     		mov	sp, r7
 1705              		@ sp needed
 1706 0016 80BD     		pop	{r7, pc}
 1707              	.L120:
 1708              		.align	2
 1709              	.L119:
 1710 0018 00700040 		.word	1073770496
 1711              		.cfi_endproc
 1712              	.LFE385:
 1714              		.section	.text.HAL_PWREx_DisableSRAMRetention,"ax",%progbits
 1715              		.align	1
 1716              		.global	HAL_PWREx_DisableSRAMRetention
 1717              		.syntax unified
 1718              		.code	16
 1719              		.thumb_func
 1721              	HAL_PWREx_DisableSRAMRetention:
 1722              	.LFB386:
 680:Drivers/STM32G0xx_HAL_Driver/Src/stm32g0xx_hal_pwr_ex.c **** 
 681:Drivers/STM32G0xx_HAL_Driver/Src/stm32g0xx_hal_pwr_ex.c **** 
 682:Drivers/STM32G0xx_HAL_Driver/Src/stm32g0xx_hal_pwr_ex.c **** /**
 683:Drivers/STM32G0xx_HAL_Driver/Src/stm32g0xx_hal_pwr_ex.c ****   * @brief Disable SRAM content retention in Standby mode.
 684:Drivers/STM32G0xx_HAL_Driver/Src/stm32g0xx_hal_pwr_ex.c ****   * @note  When RRS bit is reset, SRAM is powered off in Standby mode
 685:Drivers/STM32G0xx_HAL_Driver/Src/stm32g0xx_hal_pwr_ex.c ****   *        and its content is lost.
 686:Drivers/STM32G0xx_HAL_Driver/Src/stm32g0xx_hal_pwr_ex.c ****   * @retval None
 687:Drivers/STM32G0xx_HAL_Driver/Src/stm32g0xx_hal_pwr_ex.c ****   */
 688:Drivers/STM32G0xx_HAL_Driver/Src/stm32g0xx_hal_pwr_ex.c **** void HAL_PWREx_DisableSRAMRetention(void)
 689:Drivers/STM32G0xx_HAL_Driver/Src/stm32g0xx_hal_pwr_ex.c **** {
 1723              		.loc 1 689 1
 1724              		.cfi_startproc
 1725              		@ args = 0, pretend = 0, frame = 0
 1726              		@ frame_needed = 1, uses_anonymous_args = 0
 1727 0000 80B5     		push	{r7, lr}
 1728              	.LCFI53:
 1729              		.cfi_def_cfa_offset 8
 1730              		.cfi_offset 7, -8
 1731              		.cfi_offset 14, -4
 1732 0002 00AF     		add	r7, sp, #0
 1733              	.LCFI54:
 1734              		.cfi_def_cfa_register 7
 690:Drivers/STM32G0xx_HAL_Driver/Src/stm32g0xx_hal_pwr_ex.c ****   CLEAR_BIT(PWR->CR3, PWR_CR3_RRS);
 1735              		.loc 1 690 3
 1736 0004 044B     		ldr	r3, .L122
 1737 0006 9A68     		ldr	r2, [r3, #8]
 1738 0008 034B     		ldr	r3, .L122
 1739 000a 0449     		ldr	r1, .L122+4
 1740 000c 0A40     		ands	r2, r1
 1741 000e 9A60     		str	r2, [r3, #8]
 691:Drivers/STM32G0xx_HAL_Driver/Src/stm32g0xx_hal_pwr_ex.c **** }
 1742              		.loc 1 691 1
 1743 0010 C046     		nop
 1744 0012 BD46     		mov	sp, r7
 1745              		@ sp needed
 1746 0014 80BD     		pop	{r7, pc}
 1747              	.L123:
 1748 0016 C046     		.align	2
 1749              	.L122:
 1750 0018 00700040 		.word	1073770496
ARM GAS  C:\Users\ADMINI~1\AppData\Local\Temp\cc2Uyp30.s 			page 43


 1751 001c FFFEFFFF 		.word	-257
 1752              		.cfi_endproc
 1753              	.LFE386:
 1755              		.section	.text.HAL_PWREx_EnableFlashPowerDown,"ax",%progbits
 1756              		.align	1
 1757              		.global	HAL_PWREx_EnableFlashPowerDown
 1758              		.syntax unified
 1759              		.code	16
 1760              		.thumb_func
 1762              	HAL_PWREx_EnableFlashPowerDown:
 1763              	.LFB387:
 692:Drivers/STM32G0xx_HAL_Driver/Src/stm32g0xx_hal_pwr_ex.c **** #endif /* PWR_CR3_RRS */
 693:Drivers/STM32G0xx_HAL_Driver/Src/stm32g0xx_hal_pwr_ex.c **** 
 694:Drivers/STM32G0xx_HAL_Driver/Src/stm32g0xx_hal_pwr_ex.c **** /**
 695:Drivers/STM32G0xx_HAL_Driver/Src/stm32g0xx_hal_pwr_ex.c ****   * @brief  Enable Flash Power Down.
 696:Drivers/STM32G0xx_HAL_Driver/Src/stm32g0xx_hal_pwr_ex.c ****   * @note   This API allows to enable flash power down capabilities in low power
 697:Drivers/STM32G0xx_HAL_Driver/Src/stm32g0xx_hal_pwr_ex.c ****   *         run, low power sleep and stop modes.
 698:Drivers/STM32G0xx_HAL_Driver/Src/stm32g0xx_hal_pwr_ex.c ****   * @param  PowerMode this can be a combination of following values:
 699:Drivers/STM32G0xx_HAL_Driver/Src/stm32g0xx_hal_pwr_ex.c ****   *           @arg @ref PWR_FLASHPD_LPRUN
 700:Drivers/STM32G0xx_HAL_Driver/Src/stm32g0xx_hal_pwr_ex.c ****   *           @arg @ref PWR_FLASHPD_LPSLEEP
 701:Drivers/STM32G0xx_HAL_Driver/Src/stm32g0xx_hal_pwr_ex.c ****   *           @arg @ref PWR_FLASHPD_STOP
 702:Drivers/STM32G0xx_HAL_Driver/Src/stm32g0xx_hal_pwr_ex.c ****   * @retval None
 703:Drivers/STM32G0xx_HAL_Driver/Src/stm32g0xx_hal_pwr_ex.c ****   */
 704:Drivers/STM32G0xx_HAL_Driver/Src/stm32g0xx_hal_pwr_ex.c **** void HAL_PWREx_EnableFlashPowerDown(uint32_t PowerMode)
 705:Drivers/STM32G0xx_HAL_Driver/Src/stm32g0xx_hal_pwr_ex.c **** {
 1764              		.loc 1 705 1
 1765              		.cfi_startproc
 1766              		@ args = 0, pretend = 0, frame = 8
 1767              		@ frame_needed = 1, uses_anonymous_args = 0
 1768 0000 80B5     		push	{r7, lr}
 1769              	.LCFI55:
 1770              		.cfi_def_cfa_offset 8
 1771              		.cfi_offset 7, -8
 1772              		.cfi_offset 14, -4
 1773 0002 82B0     		sub	sp, sp, #8
 1774              	.LCFI56:
 1775              		.cfi_def_cfa_offset 16
 1776 0004 00AF     		add	r7, sp, #0
 1777              	.LCFI57:
 1778              		.cfi_def_cfa_register 7
 1779 0006 7860     		str	r0, [r7, #4]
 706:Drivers/STM32G0xx_HAL_Driver/Src/stm32g0xx_hal_pwr_ex.c ****   assert_param(IS_PWR_FLASH_POWERDOWN(PowerMode));
 707:Drivers/STM32G0xx_HAL_Driver/Src/stm32g0xx_hal_pwr_ex.c **** 
 708:Drivers/STM32G0xx_HAL_Driver/Src/stm32g0xx_hal_pwr_ex.c ****   PWR->CR1 |= PowerMode;
 1780              		.loc 1 708 12
 1781 0008 044B     		ldr	r3, .L125
 1782 000a 1968     		ldr	r1, [r3]
 1783 000c 034B     		ldr	r3, .L125
 1784 000e 7A68     		ldr	r2, [r7, #4]
 1785 0010 0A43     		orrs	r2, r1
 1786 0012 1A60     		str	r2, [r3]
 709:Drivers/STM32G0xx_HAL_Driver/Src/stm32g0xx_hal_pwr_ex.c **** }
 1787              		.loc 1 709 1
 1788 0014 C046     		nop
 1789 0016 BD46     		mov	sp, r7
 1790 0018 02B0     		add	sp, sp, #8
 1791              		@ sp needed
ARM GAS  C:\Users\ADMINI~1\AppData\Local\Temp\cc2Uyp30.s 			page 44


 1792 001a 80BD     		pop	{r7, pc}
 1793              	.L126:
 1794              		.align	2
 1795              	.L125:
 1796 001c 00700040 		.word	1073770496
 1797              		.cfi_endproc
 1798              	.LFE387:
 1800              		.section	.text.HAL_PWREx_DisableFlashPowerDown,"ax",%progbits
 1801              		.align	1
 1802              		.global	HAL_PWREx_DisableFlashPowerDown
 1803              		.syntax unified
 1804              		.code	16
 1805              		.thumb_func
 1807              	HAL_PWREx_DisableFlashPowerDown:
 1808              	.LFB388:
 710:Drivers/STM32G0xx_HAL_Driver/Src/stm32g0xx_hal_pwr_ex.c **** 
 711:Drivers/STM32G0xx_HAL_Driver/Src/stm32g0xx_hal_pwr_ex.c **** 
 712:Drivers/STM32G0xx_HAL_Driver/Src/stm32g0xx_hal_pwr_ex.c **** /**
 713:Drivers/STM32G0xx_HAL_Driver/Src/stm32g0xx_hal_pwr_ex.c ****   * @brief  Disable Flash Power Down.
 714:Drivers/STM32G0xx_HAL_Driver/Src/stm32g0xx_hal_pwr_ex.c ****   * @note   This API allows to disable flash power down capabilities in low power
 715:Drivers/STM32G0xx_HAL_Driver/Src/stm32g0xx_hal_pwr_ex.c ****   *         run, low power sleep and stop modes.
 716:Drivers/STM32G0xx_HAL_Driver/Src/stm32g0xx_hal_pwr_ex.c ****   * @param  PowerMode this can be a combination of following values:
 717:Drivers/STM32G0xx_HAL_Driver/Src/stm32g0xx_hal_pwr_ex.c ****   *           @arg @ref PWR_FLASHPD_LPRUN
 718:Drivers/STM32G0xx_HAL_Driver/Src/stm32g0xx_hal_pwr_ex.c ****   *           @arg @ref PWR_FLASHPD_LPSLEEP
 719:Drivers/STM32G0xx_HAL_Driver/Src/stm32g0xx_hal_pwr_ex.c ****   *           @arg @ref PWR_FLASHPD_STOP
 720:Drivers/STM32G0xx_HAL_Driver/Src/stm32g0xx_hal_pwr_ex.c ****   * @retval None
 721:Drivers/STM32G0xx_HAL_Driver/Src/stm32g0xx_hal_pwr_ex.c ****   */
 722:Drivers/STM32G0xx_HAL_Driver/Src/stm32g0xx_hal_pwr_ex.c **** void HAL_PWREx_DisableFlashPowerDown(uint32_t PowerMode)
 723:Drivers/STM32G0xx_HAL_Driver/Src/stm32g0xx_hal_pwr_ex.c **** {
 1809              		.loc 1 723 1
 1810              		.cfi_startproc
 1811              		@ args = 0, pretend = 0, frame = 8
 1812              		@ frame_needed = 1, uses_anonymous_args = 0
 1813 0000 80B5     		push	{r7, lr}
 1814              	.LCFI58:
 1815              		.cfi_def_cfa_offset 8
 1816              		.cfi_offset 7, -8
 1817              		.cfi_offset 14, -4
 1818 0002 82B0     		sub	sp, sp, #8
 1819              	.LCFI59:
 1820              		.cfi_def_cfa_offset 16
 1821 0004 00AF     		add	r7, sp, #0
 1822              	.LCFI60:
 1823              		.cfi_def_cfa_register 7
 1824 0006 7860     		str	r0, [r7, #4]
 724:Drivers/STM32G0xx_HAL_Driver/Src/stm32g0xx_hal_pwr_ex.c ****   assert_param(IS_PWR_FLASH_POWERDOWN(PowerMode));
 725:Drivers/STM32G0xx_HAL_Driver/Src/stm32g0xx_hal_pwr_ex.c **** 
 726:Drivers/STM32G0xx_HAL_Driver/Src/stm32g0xx_hal_pwr_ex.c ****   PWR->CR1 &= ~PowerMode;
 1825              		.loc 1 726 12
 1826 0008 054B     		ldr	r3, .L128
 1827 000a 1A68     		ldr	r2, [r3]
 1828              		.loc 1 726 15
 1829 000c 7B68     		ldr	r3, [r7, #4]
 1830 000e D943     		mvns	r1, r3
 1831              		.loc 1 726 12
 1832 0010 034B     		ldr	r3, .L128
 1833 0012 0A40     		ands	r2, r1
ARM GAS  C:\Users\ADMINI~1\AppData\Local\Temp\cc2Uyp30.s 			page 45


 1834 0014 1A60     		str	r2, [r3]
 727:Drivers/STM32G0xx_HAL_Driver/Src/stm32g0xx_hal_pwr_ex.c **** }
 1835              		.loc 1 727 1
 1836 0016 C046     		nop
 1837 0018 BD46     		mov	sp, r7
 1838 001a 02B0     		add	sp, sp, #8
 1839              		@ sp needed
 1840 001c 80BD     		pop	{r7, pc}
 1841              	.L129:
 1842 001e C046     		.align	2
 1843              	.L128:
 1844 0020 00700040 		.word	1073770496
 1845              		.cfi_endproc
 1846              	.LFE388:
 1848              		.section	.text.HAL_PWREx_GetVoltageRange,"ax",%progbits
 1849              		.align	1
 1850              		.global	HAL_PWREx_GetVoltageRange
 1851              		.syntax unified
 1852              		.code	16
 1853              		.thumb_func
 1855              	HAL_PWREx_GetVoltageRange:
 1856              	.LFB389:
 728:Drivers/STM32G0xx_HAL_Driver/Src/stm32g0xx_hal_pwr_ex.c **** 
 729:Drivers/STM32G0xx_HAL_Driver/Src/stm32g0xx_hal_pwr_ex.c **** 
 730:Drivers/STM32G0xx_HAL_Driver/Src/stm32g0xx_hal_pwr_ex.c **** /**
 731:Drivers/STM32G0xx_HAL_Driver/Src/stm32g0xx_hal_pwr_ex.c ****   * @brief   Return Voltage Scaling Range.
 732:Drivers/STM32G0xx_HAL_Driver/Src/stm32g0xx_hal_pwr_ex.c ****   * @retval  VOS bit field:
 733:Drivers/STM32G0xx_HAL_Driver/Src/stm32g0xx_hal_pwr_ex.c ****   *         @arg @ref PWR_REGULATOR_VOLTAGE_SCALE1
 734:Drivers/STM32G0xx_HAL_Driver/Src/stm32g0xx_hal_pwr_ex.c ****   *         @arg @ref PWR_REGULATOR_VOLTAGE_SCALE2
 735:Drivers/STM32G0xx_HAL_Driver/Src/stm32g0xx_hal_pwr_ex.c ****   */
 736:Drivers/STM32G0xx_HAL_Driver/Src/stm32g0xx_hal_pwr_ex.c **** uint32_t HAL_PWREx_GetVoltageRange(void)
 737:Drivers/STM32G0xx_HAL_Driver/Src/stm32g0xx_hal_pwr_ex.c **** {
 1857              		.loc 1 737 1
 1858              		.cfi_startproc
 1859              		@ args = 0, pretend = 0, frame = 0
 1860              		@ frame_needed = 1, uses_anonymous_args = 0
 1861 0000 80B5     		push	{r7, lr}
 1862              	.LCFI61:
 1863              		.cfi_def_cfa_offset 8
 1864              		.cfi_offset 7, -8
 1865              		.cfi_offset 14, -4
 1866 0002 00AF     		add	r7, sp, #0
 1867              	.LCFI62:
 1868              		.cfi_def_cfa_register 7
 738:Drivers/STM32G0xx_HAL_Driver/Src/stm32g0xx_hal_pwr_ex.c ****   return (PWR->CR1 & PWR_CR1_VOS);
 1869              		.loc 1 738 14
 1870 0004 034B     		ldr	r3, .L132
 1871 0006 1A68     		ldr	r2, [r3]
 1872              		.loc 1 738 20
 1873 0008 C023     		movs	r3, #192
 1874 000a DB00     		lsls	r3, r3, #3
 1875 000c 1340     		ands	r3, r2
 739:Drivers/STM32G0xx_HAL_Driver/Src/stm32g0xx_hal_pwr_ex.c **** }
 1876              		.loc 1 739 1
 1877 000e 1800     		movs	r0, r3
 1878 0010 BD46     		mov	sp, r7
 1879              		@ sp needed
ARM GAS  C:\Users\ADMINI~1\AppData\Local\Temp\cc2Uyp30.s 			page 46


 1880 0012 80BD     		pop	{r7, pc}
 1881              	.L133:
 1882              		.align	2
 1883              	.L132:
 1884 0014 00700040 		.word	1073770496
 1885              		.cfi_endproc
 1886              	.LFE389:
 1888              		.global	__aeabi_uidiv
 1889              		.section	.text.HAL_PWREx_ControlVoltageScaling,"ax",%progbits
 1890              		.align	1
 1891              		.global	HAL_PWREx_ControlVoltageScaling
 1892              		.syntax unified
 1893              		.code	16
 1894              		.thumb_func
 1896              	HAL_PWREx_ControlVoltageScaling:
 1897              	.LFB390:
 740:Drivers/STM32G0xx_HAL_Driver/Src/stm32g0xx_hal_pwr_ex.c **** 
 741:Drivers/STM32G0xx_HAL_Driver/Src/stm32g0xx_hal_pwr_ex.c **** 
 742:Drivers/STM32G0xx_HAL_Driver/Src/stm32g0xx_hal_pwr_ex.c **** /**
 743:Drivers/STM32G0xx_HAL_Driver/Src/stm32g0xx_hal_pwr_ex.c ****   * @brief Configure the main regulator output voltage.
 744:Drivers/STM32G0xx_HAL_Driver/Src/stm32g0xx_hal_pwr_ex.c ****   * @param  VoltageScaling specifies the regulator output voltage to achieve
 745:Drivers/STM32G0xx_HAL_Driver/Src/stm32g0xx_hal_pwr_ex.c ****   *         a tradeoff between performance and power consumption.
 746:Drivers/STM32G0xx_HAL_Driver/Src/stm32g0xx_hal_pwr_ex.c ****   *         This parameter can be one of the following values:
 747:Drivers/STM32G0xx_HAL_Driver/Src/stm32g0xx_hal_pwr_ex.c ****   *          @arg @ref PWR_REGULATOR_VOLTAGE_SCALE1 Regulator voltage output range 1 mode,
 748:Drivers/STM32G0xx_HAL_Driver/Src/stm32g0xx_hal_pwr_ex.c ****   *                                                typical output voltage at 1.2 V,
 749:Drivers/STM32G0xx_HAL_Driver/Src/stm32g0xx_hal_pwr_ex.c ****   *                                                system frequency up to 64 MHz.
 750:Drivers/STM32G0xx_HAL_Driver/Src/stm32g0xx_hal_pwr_ex.c ****   *          @arg @ref PWR_REGULATOR_VOLTAGE_SCALE2 Regulator voltage output range 2 mode,
 751:Drivers/STM32G0xx_HAL_Driver/Src/stm32g0xx_hal_pwr_ex.c ****   *                                                typical output voltage at 1.0 V,
 752:Drivers/STM32G0xx_HAL_Driver/Src/stm32g0xx_hal_pwr_ex.c ****   *                                                system frequency up to 16 MHz.
 753:Drivers/STM32G0xx_HAL_Driver/Src/stm32g0xx_hal_pwr_ex.c ****   * @note  When moving from Range 1 to Range 2, the system frequency must be decreased to
 754:Drivers/STM32G0xx_HAL_Driver/Src/stm32g0xx_hal_pwr_ex.c ****   *        a value below 16 MHz before calling HAL_PWREx_ControlVoltageScaling() API.
 755:Drivers/STM32G0xx_HAL_Driver/Src/stm32g0xx_hal_pwr_ex.c ****   *        When moving from Range 2 to Range 1, the system frequency can be increased to
 756:Drivers/STM32G0xx_HAL_Driver/Src/stm32g0xx_hal_pwr_ex.c ****   *        a value up to 64 MHz after calling HAL_PWREx_ControlVoltageScaling() API.
 757:Drivers/STM32G0xx_HAL_Driver/Src/stm32g0xx_hal_pwr_ex.c ****   * @note  When moving from Range 2 to Range 1, the API waits for VOSF flag to be
 758:Drivers/STM32G0xx_HAL_Driver/Src/stm32g0xx_hal_pwr_ex.c ****   *        cleared before returning the status. If the flag is not cleared within
 759:Drivers/STM32G0xx_HAL_Driver/Src/stm32g0xx_hal_pwr_ex.c ****   *        6 microseconds, HAL_TIMEOUT status is reported.
 760:Drivers/STM32G0xx_HAL_Driver/Src/stm32g0xx_hal_pwr_ex.c ****   * @retval HAL Status
 761:Drivers/STM32G0xx_HAL_Driver/Src/stm32g0xx_hal_pwr_ex.c ****   */
 762:Drivers/STM32G0xx_HAL_Driver/Src/stm32g0xx_hal_pwr_ex.c **** HAL_StatusTypeDef HAL_PWREx_ControlVoltageScaling(uint32_t VoltageScaling)
 763:Drivers/STM32G0xx_HAL_Driver/Src/stm32g0xx_hal_pwr_ex.c **** {
 1898              		.loc 1 763 1
 1899              		.cfi_startproc
 1900              		@ args = 0, pretend = 0, frame = 16
 1901              		@ frame_needed = 1, uses_anonymous_args = 0
 1902 0000 80B5     		push	{r7, lr}
 1903              	.LCFI63:
 1904              		.cfi_def_cfa_offset 8
 1905              		.cfi_offset 7, -8
 1906              		.cfi_offset 14, -4
 1907 0002 84B0     		sub	sp, sp, #16
 1908              	.LCFI64:
 1909              		.cfi_def_cfa_offset 24
 1910 0004 00AF     		add	r7, sp, #0
 1911              	.LCFI65:
 1912              		.cfi_def_cfa_register 7
 1913 0006 7860     		str	r0, [r7, #4]
 764:Drivers/STM32G0xx_HAL_Driver/Src/stm32g0xx_hal_pwr_ex.c ****   uint32_t wait_loop_index;
ARM GAS  C:\Users\ADMINI~1\AppData\Local\Temp\cc2Uyp30.s 			page 47


 765:Drivers/STM32G0xx_HAL_Driver/Src/stm32g0xx_hal_pwr_ex.c **** 
 766:Drivers/STM32G0xx_HAL_Driver/Src/stm32g0xx_hal_pwr_ex.c ****   assert_param(IS_PWR_VOLTAGE_SCALING_RANGE(VoltageScaling));
 767:Drivers/STM32G0xx_HAL_Driver/Src/stm32g0xx_hal_pwr_ex.c **** 
 768:Drivers/STM32G0xx_HAL_Driver/Src/stm32g0xx_hal_pwr_ex.c ****   /* Modify voltage scaling range */
 769:Drivers/STM32G0xx_HAL_Driver/Src/stm32g0xx_hal_pwr_ex.c ****   MODIFY_REG(PWR->CR1, PWR_CR1_VOS, VoltageScaling);
 1914              		.loc 1 769 3
 1915 0008 194B     		ldr	r3, .L140
 1916 000a 1B68     		ldr	r3, [r3]
 1917 000c 194A     		ldr	r2, .L140+4
 1918 000e 1340     		ands	r3, r2
 1919 0010 1900     		movs	r1, r3
 1920 0012 174B     		ldr	r3, .L140
 1921 0014 7A68     		ldr	r2, [r7, #4]
 1922 0016 0A43     		orrs	r2, r1
 1923 0018 1A60     		str	r2, [r3]
 770:Drivers/STM32G0xx_HAL_Driver/Src/stm32g0xx_hal_pwr_ex.c **** 
 771:Drivers/STM32G0xx_HAL_Driver/Src/stm32g0xx_hal_pwr_ex.c ****   /* In case of Range 1 selected, we need to ensure that main regulator reaches new value */
 772:Drivers/STM32G0xx_HAL_Driver/Src/stm32g0xx_hal_pwr_ex.c ****   if (VoltageScaling == PWR_REGULATOR_VOLTAGE_SCALE1)
 1924              		.loc 1 772 6
 1925 001a 7A68     		ldr	r2, [r7, #4]
 1926 001c 8023     		movs	r3, #128
 1927 001e 9B00     		lsls	r3, r3, #2
 1928 0020 9A42     		cmp	r2, r3
 1929 0022 1FD1     		bne	.L135
 773:Drivers/STM32G0xx_HAL_Driver/Src/stm32g0xx_hal_pwr_ex.c ****   {
 774:Drivers/STM32G0xx_HAL_Driver/Src/stm32g0xx_hal_pwr_ex.c ****     /* Set timeout value */
 775:Drivers/STM32G0xx_HAL_Driver/Src/stm32g0xx_hal_pwr_ex.c ****     wait_loop_index = ((PWR_VOSF_SETTING_DELAY_6_US * SystemCoreClock) / 1000000U) + 1U;
 1930              		.loc 1 775 53
 1931 0024 144B     		ldr	r3, .L140+8
 1932 0026 1A68     		ldr	r2, [r3]
 1933 0028 1300     		movs	r3, r2
 1934 002a 5B00     		lsls	r3, r3, #1
 1935 002c 9B18     		adds	r3, r3, r2
 1936 002e 5B00     		lsls	r3, r3, #1
 1937              		.loc 1 775 72
 1938 0030 1249     		ldr	r1, .L140+12
 1939 0032 1800     		movs	r0, r3
 1940 0034 FFF7FEFF 		bl	__aeabi_uidiv
 1941 0038 0300     		movs	r3, r0
 1942              		.loc 1 775 21
 1943 003a 0133     		adds	r3, r3, #1
 1944 003c FB60     		str	r3, [r7, #12]
 776:Drivers/STM32G0xx_HAL_Driver/Src/stm32g0xx_hal_pwr_ex.c **** 
 777:Drivers/STM32G0xx_HAL_Driver/Src/stm32g0xx_hal_pwr_ex.c ****     /* Wait until VOSF is reset */
 778:Drivers/STM32G0xx_HAL_Driver/Src/stm32g0xx_hal_pwr_ex.c ****     while (HAL_IS_BIT_SET(PWR->SR2, PWR_SR2_VOSF))
 1945              		.loc 1 778 11
 1946 003e 08E0     		b	.L136
 1947              	.L139:
 779:Drivers/STM32G0xx_HAL_Driver/Src/stm32g0xx_hal_pwr_ex.c ****     {
 780:Drivers/STM32G0xx_HAL_Driver/Src/stm32g0xx_hal_pwr_ex.c ****       if (wait_loop_index != 0U)
 1948              		.loc 1 780 10
 1949 0040 FB68     		ldr	r3, [r7, #12]
 1950 0042 002B     		cmp	r3, #0
 1951 0044 03D0     		beq	.L137
 781:Drivers/STM32G0xx_HAL_Driver/Src/stm32g0xx_hal_pwr_ex.c ****       {
 782:Drivers/STM32G0xx_HAL_Driver/Src/stm32g0xx_hal_pwr_ex.c ****         wait_loop_index--;
 1952              		.loc 1 782 24
ARM GAS  C:\Users\ADMINI~1\AppData\Local\Temp\cc2Uyp30.s 			page 48


 1953 0046 FB68     		ldr	r3, [r7, #12]
 1954 0048 013B     		subs	r3, r3, #1
 1955 004a FB60     		str	r3, [r7, #12]
 1956 004c 01E0     		b	.L136
 1957              	.L137:
 783:Drivers/STM32G0xx_HAL_Driver/Src/stm32g0xx_hal_pwr_ex.c ****       }
 784:Drivers/STM32G0xx_HAL_Driver/Src/stm32g0xx_hal_pwr_ex.c ****       else
 785:Drivers/STM32G0xx_HAL_Driver/Src/stm32g0xx_hal_pwr_ex.c ****       {
 786:Drivers/STM32G0xx_HAL_Driver/Src/stm32g0xx_hal_pwr_ex.c ****         return HAL_TIMEOUT;
 1958              		.loc 1 786 16
 1959 004e 0323     		movs	r3, #3
 1960 0050 09E0     		b	.L138
 1961              	.L136:
 778:Drivers/STM32G0xx_HAL_Driver/Src/stm32g0xx_hal_pwr_ex.c ****     {
 1962              		.loc 1 778 12
 1963 0052 074B     		ldr	r3, .L140
 1964 0054 5A69     		ldr	r2, [r3, #20]
 1965 0056 8023     		movs	r3, #128
 1966 0058 DB00     		lsls	r3, r3, #3
 1967 005a 1A40     		ands	r2, r3
 778:Drivers/STM32G0xx_HAL_Driver/Src/stm32g0xx_hal_pwr_ex.c ****     {
 1968              		.loc 1 778 11
 1969 005c 8023     		movs	r3, #128
 1970 005e DB00     		lsls	r3, r3, #3
 1971 0060 9A42     		cmp	r2, r3
 1972 0062 EDD0     		beq	.L139
 1973              	.L135:
 787:Drivers/STM32G0xx_HAL_Driver/Src/stm32g0xx_hal_pwr_ex.c ****       }
 788:Drivers/STM32G0xx_HAL_Driver/Src/stm32g0xx_hal_pwr_ex.c ****     }
 789:Drivers/STM32G0xx_HAL_Driver/Src/stm32g0xx_hal_pwr_ex.c ****   }
 790:Drivers/STM32G0xx_HAL_Driver/Src/stm32g0xx_hal_pwr_ex.c **** 
 791:Drivers/STM32G0xx_HAL_Driver/Src/stm32g0xx_hal_pwr_ex.c ****   return HAL_OK;
 1974              		.loc 1 791 10
 1975 0064 0023     		movs	r3, #0
 1976              	.L138:
 792:Drivers/STM32G0xx_HAL_Driver/Src/stm32g0xx_hal_pwr_ex.c **** }
 1977              		.loc 1 792 1
 1978 0066 1800     		movs	r0, r3
 1979 0068 BD46     		mov	sp, r7
 1980 006a 04B0     		add	sp, sp, #16
 1981              		@ sp needed
 1982 006c 80BD     		pop	{r7, pc}
 1983              	.L141:
 1984 006e C046     		.align	2
 1985              	.L140:
 1986 0070 00700040 		.word	1073770496
 1987 0074 FFF9FFFF 		.word	-1537
 1988 0078 00000000 		.word	SystemCoreClock
 1989 007c 40420F00 		.word	1000000
 1990              		.cfi_endproc
 1991              	.LFE390:
 1993              		.section	.text.HAL_PWREx_EnableLowPowerRunMode,"ax",%progbits
 1994              		.align	1
 1995              		.global	HAL_PWREx_EnableLowPowerRunMode
 1996              		.syntax unified
 1997              		.code	16
 1998              		.thumb_func
ARM GAS  C:\Users\ADMINI~1\AppData\Local\Temp\cc2Uyp30.s 			page 49


 2000              	HAL_PWREx_EnableLowPowerRunMode:
 2001              	.LFB391:
 793:Drivers/STM32G0xx_HAL_Driver/Src/stm32g0xx_hal_pwr_ex.c **** 
 794:Drivers/STM32G0xx_HAL_Driver/Src/stm32g0xx_hal_pwr_ex.c **** 
 795:Drivers/STM32G0xx_HAL_Driver/Src/stm32g0xx_hal_pwr_ex.c **** 
 796:Drivers/STM32G0xx_HAL_Driver/Src/stm32g0xx_hal_pwr_ex.c **** /**
 797:Drivers/STM32G0xx_HAL_Driver/Src/stm32g0xx_hal_pwr_ex.c ****   * @brief Enter Low-power Run mode
 798:Drivers/STM32G0xx_HAL_Driver/Src/stm32g0xx_hal_pwr_ex.c ****   * @note  System clock frequency has to be decreased below 2 MHz before entering
 799:Drivers/STM32G0xx_HAL_Driver/Src/stm32g0xx_hal_pwr_ex.c ****   *        low power run mode
 800:Drivers/STM32G0xx_HAL_Driver/Src/stm32g0xx_hal_pwr_ex.c ****   * @note  In Low-power Run mode, all I/O pins keep the same state as in Run mode.
 801:Drivers/STM32G0xx_HAL_Driver/Src/stm32g0xx_hal_pwr_ex.c ****   * @retval None
 802:Drivers/STM32G0xx_HAL_Driver/Src/stm32g0xx_hal_pwr_ex.c ****   */
 803:Drivers/STM32G0xx_HAL_Driver/Src/stm32g0xx_hal_pwr_ex.c **** void HAL_PWREx_EnableLowPowerRunMode(void)
 804:Drivers/STM32G0xx_HAL_Driver/Src/stm32g0xx_hal_pwr_ex.c **** {
 2002              		.loc 1 804 1
 2003              		.cfi_startproc
 2004              		@ args = 0, pretend = 0, frame = 0
 2005              		@ frame_needed = 1, uses_anonymous_args = 0
 2006 0000 80B5     		push	{r7, lr}
 2007              	.LCFI66:
 2008              		.cfi_def_cfa_offset 8
 2009              		.cfi_offset 7, -8
 2010              		.cfi_offset 14, -4
 2011 0002 00AF     		add	r7, sp, #0
 2012              	.LCFI67:
 2013              		.cfi_def_cfa_register 7
 805:Drivers/STM32G0xx_HAL_Driver/Src/stm32g0xx_hal_pwr_ex.c ****   /* Set Regulator parameter */
 806:Drivers/STM32G0xx_HAL_Driver/Src/stm32g0xx_hal_pwr_ex.c ****   SET_BIT(PWR->CR1, PWR_CR1_LPR);
 2014              		.loc 1 806 3
 2015 0004 044B     		ldr	r3, .L143
 2016 0006 1A68     		ldr	r2, [r3]
 2017 0008 034B     		ldr	r3, .L143
 2018 000a 8021     		movs	r1, #128
 2019 000c C901     		lsls	r1, r1, #7
 2020 000e 0A43     		orrs	r2, r1
 2021 0010 1A60     		str	r2, [r3]
 807:Drivers/STM32G0xx_HAL_Driver/Src/stm32g0xx_hal_pwr_ex.c **** }
 2022              		.loc 1 807 1
 2023 0012 C046     		nop
 2024 0014 BD46     		mov	sp, r7
 2025              		@ sp needed
 2026 0016 80BD     		pop	{r7, pc}
 2027              	.L144:
 2028              		.align	2
 2029              	.L143:
 2030 0018 00700040 		.word	1073770496
 2031              		.cfi_endproc
 2032              	.LFE391:
 2034              		.section	.text.HAL_PWREx_DisableLowPowerRunMode,"ax",%progbits
 2035              		.align	1
 2036              		.global	HAL_PWREx_DisableLowPowerRunMode
 2037              		.syntax unified
 2038              		.code	16
 2039              		.thumb_func
 2041              	HAL_PWREx_DisableLowPowerRunMode:
 2042              	.LFB392:
 808:Drivers/STM32G0xx_HAL_Driver/Src/stm32g0xx_hal_pwr_ex.c **** 
ARM GAS  C:\Users\ADMINI~1\AppData\Local\Temp\cc2Uyp30.s 			page 50


 809:Drivers/STM32G0xx_HAL_Driver/Src/stm32g0xx_hal_pwr_ex.c **** 
 810:Drivers/STM32G0xx_HAL_Driver/Src/stm32g0xx_hal_pwr_ex.c **** /**
 811:Drivers/STM32G0xx_HAL_Driver/Src/stm32g0xx_hal_pwr_ex.c ****   * @brief Exit Low-power Run mode.
 812:Drivers/STM32G0xx_HAL_Driver/Src/stm32g0xx_hal_pwr_ex.c ****   * @note  Before HAL_PWREx_DisableLowPowerRunMode() completion, the function checks that
 813:Drivers/STM32G0xx_HAL_Driver/Src/stm32g0xx_hal_pwr_ex.c ****   *        REGLPF has been properly reset (otherwise, HAL_PWREx_DisableLowPowerRunMode
 814:Drivers/STM32G0xx_HAL_Driver/Src/stm32g0xx_hal_pwr_ex.c ****   *        returns HAL_TIMEOUT status). The system clock frequency can then be
 815:Drivers/STM32G0xx_HAL_Driver/Src/stm32g0xx_hal_pwr_ex.c ****   *        increased above 2 MHz.
 816:Drivers/STM32G0xx_HAL_Driver/Src/stm32g0xx_hal_pwr_ex.c ****   * @retval HAL Status
 817:Drivers/STM32G0xx_HAL_Driver/Src/stm32g0xx_hal_pwr_ex.c ****   */
 818:Drivers/STM32G0xx_HAL_Driver/Src/stm32g0xx_hal_pwr_ex.c **** HAL_StatusTypeDef HAL_PWREx_DisableLowPowerRunMode(void)
 819:Drivers/STM32G0xx_HAL_Driver/Src/stm32g0xx_hal_pwr_ex.c **** {
 2043              		.loc 1 819 1
 2044              		.cfi_startproc
 2045              		@ args = 0, pretend = 0, frame = 8
 2046              		@ frame_needed = 1, uses_anonymous_args = 0
 2047 0000 80B5     		push	{r7, lr}
 2048              	.LCFI68:
 2049              		.cfi_def_cfa_offset 8
 2050              		.cfi_offset 7, -8
 2051              		.cfi_offset 14, -4
 2052 0002 82B0     		sub	sp, sp, #8
 2053              	.LCFI69:
 2054              		.cfi_def_cfa_offset 16
 2055 0004 00AF     		add	r7, sp, #0
 2056              	.LCFI70:
 2057              		.cfi_def_cfa_register 7
 820:Drivers/STM32G0xx_HAL_Driver/Src/stm32g0xx_hal_pwr_ex.c ****   uint32_t wait_loop_index = ((PWR_REGLPF_SETTING_DELAY_6_US * SystemCoreClock) / 1000000U) + 1U;
 2058              		.loc 1 820 62
 2059 0006 154B     		ldr	r3, .L150
 2060 0008 1A68     		ldr	r2, [r3]
 2061 000a 1300     		movs	r3, r2
 2062 000c 5B00     		lsls	r3, r3, #1
 2063 000e 9B18     		adds	r3, r3, r2
 2064 0010 5B00     		lsls	r3, r3, #1
 2065              		.loc 1 820 81
 2066 0012 1349     		ldr	r1, .L150+4
 2067 0014 1800     		movs	r0, r3
 2068 0016 FFF7FEFF 		bl	__aeabi_uidiv
 2069 001a 0300     		movs	r3, r0
 2070              		.loc 1 820 12
 2071 001c 0133     		adds	r3, r3, #1
 2072 001e 7B60     		str	r3, [r7, #4]
 821:Drivers/STM32G0xx_HAL_Driver/Src/stm32g0xx_hal_pwr_ex.c **** 
 822:Drivers/STM32G0xx_HAL_Driver/Src/stm32g0xx_hal_pwr_ex.c ****   /* Clear LPR bit */
 823:Drivers/STM32G0xx_HAL_Driver/Src/stm32g0xx_hal_pwr_ex.c ****   CLEAR_BIT(PWR->CR1, PWR_CR1_LPR);
 2073              		.loc 1 823 3
 2074 0020 104B     		ldr	r3, .L150+8
 2075 0022 1A68     		ldr	r2, [r3]
 2076 0024 0F4B     		ldr	r3, .L150+8
 2077 0026 1049     		ldr	r1, .L150+12
 2078 0028 0A40     		ands	r2, r1
 2079 002a 1A60     		str	r2, [r3]
 824:Drivers/STM32G0xx_HAL_Driver/Src/stm32g0xx_hal_pwr_ex.c **** 
 825:Drivers/STM32G0xx_HAL_Driver/Src/stm32g0xx_hal_pwr_ex.c ****   /* Wait until REGLPF is reset */
 826:Drivers/STM32G0xx_HAL_Driver/Src/stm32g0xx_hal_pwr_ex.c ****   while (HAL_IS_BIT_SET(PWR->SR2, PWR_SR2_REGLPF))
 2080              		.loc 1 826 9
 2081 002c 08E0     		b	.L146
ARM GAS  C:\Users\ADMINI~1\AppData\Local\Temp\cc2Uyp30.s 			page 51


 2082              	.L149:
 827:Drivers/STM32G0xx_HAL_Driver/Src/stm32g0xx_hal_pwr_ex.c ****   {
 828:Drivers/STM32G0xx_HAL_Driver/Src/stm32g0xx_hal_pwr_ex.c ****     if (wait_loop_index != 0U)
 2083              		.loc 1 828 8
 2084 002e 7B68     		ldr	r3, [r7, #4]
 2085 0030 002B     		cmp	r3, #0
 2086 0032 03D0     		beq	.L147
 829:Drivers/STM32G0xx_HAL_Driver/Src/stm32g0xx_hal_pwr_ex.c ****     {
 830:Drivers/STM32G0xx_HAL_Driver/Src/stm32g0xx_hal_pwr_ex.c ****       wait_loop_index--;
 2087              		.loc 1 830 22
 2088 0034 7B68     		ldr	r3, [r7, #4]
 2089 0036 013B     		subs	r3, r3, #1
 2090 0038 7B60     		str	r3, [r7, #4]
 2091 003a 01E0     		b	.L146
 2092              	.L147:
 831:Drivers/STM32G0xx_HAL_Driver/Src/stm32g0xx_hal_pwr_ex.c ****     }
 832:Drivers/STM32G0xx_HAL_Driver/Src/stm32g0xx_hal_pwr_ex.c ****     else
 833:Drivers/STM32G0xx_HAL_Driver/Src/stm32g0xx_hal_pwr_ex.c ****     {
 834:Drivers/STM32G0xx_HAL_Driver/Src/stm32g0xx_hal_pwr_ex.c ****       return HAL_TIMEOUT;
 2093              		.loc 1 834 14
 2094 003c 0323     		movs	r3, #3
 2095 003e 09E0     		b	.L148
 2096              	.L146:
 826:Drivers/STM32G0xx_HAL_Driver/Src/stm32g0xx_hal_pwr_ex.c ****   {
 2097              		.loc 1 826 10
 2098 0040 084B     		ldr	r3, .L150+8
 2099 0042 5A69     		ldr	r2, [r3, #20]
 2100 0044 8023     		movs	r3, #128
 2101 0046 9B00     		lsls	r3, r3, #2
 2102 0048 1A40     		ands	r2, r3
 826:Drivers/STM32G0xx_HAL_Driver/Src/stm32g0xx_hal_pwr_ex.c ****   {
 2103              		.loc 1 826 9
 2104 004a 8023     		movs	r3, #128
 2105 004c 9B00     		lsls	r3, r3, #2
 2106 004e 9A42     		cmp	r2, r3
 2107 0050 EDD0     		beq	.L149
 835:Drivers/STM32G0xx_HAL_Driver/Src/stm32g0xx_hal_pwr_ex.c ****     }
 836:Drivers/STM32G0xx_HAL_Driver/Src/stm32g0xx_hal_pwr_ex.c ****   }
 837:Drivers/STM32G0xx_HAL_Driver/Src/stm32g0xx_hal_pwr_ex.c **** 
 838:Drivers/STM32G0xx_HAL_Driver/Src/stm32g0xx_hal_pwr_ex.c ****   return HAL_OK;
 2108              		.loc 1 838 10
 2109 0052 0023     		movs	r3, #0
 2110              	.L148:
 839:Drivers/STM32G0xx_HAL_Driver/Src/stm32g0xx_hal_pwr_ex.c **** }
 2111              		.loc 1 839 1
 2112 0054 1800     		movs	r0, r3
 2113 0056 BD46     		mov	sp, r7
 2114 0058 02B0     		add	sp, sp, #8
 2115              		@ sp needed
 2116 005a 80BD     		pop	{r7, pc}
 2117              	.L151:
 2118              		.align	2
 2119              	.L150:
 2120 005c 00000000 		.word	SystemCoreClock
 2121 0060 40420F00 		.word	1000000
 2122 0064 00700040 		.word	1073770496
 2123 0068 FFBFFFFF 		.word	-16385
ARM GAS  C:\Users\ADMINI~1\AppData\Local\Temp\cc2Uyp30.s 			page 52


 2124              		.cfi_endproc
 2125              	.LFE392:
 2127              		.section	.text.HAL_PWREx_EnterSHUTDOWNMode,"ax",%progbits
 2128              		.align	1
 2129              		.global	HAL_PWREx_EnterSHUTDOWNMode
 2130              		.syntax unified
 2131              		.code	16
 2132              		.thumb_func
 2134              	HAL_PWREx_EnterSHUTDOWNMode:
 2135              	.LFB393:
 840:Drivers/STM32G0xx_HAL_Driver/Src/stm32g0xx_hal_pwr_ex.c **** 
 841:Drivers/STM32G0xx_HAL_Driver/Src/stm32g0xx_hal_pwr_ex.c **** 
 842:Drivers/STM32G0xx_HAL_Driver/Src/stm32g0xx_hal_pwr_ex.c **** #if defined(PWR_SHDW_SUPPORT)
 843:Drivers/STM32G0xx_HAL_Driver/Src/stm32g0xx_hal_pwr_ex.c **** /**
 844:Drivers/STM32G0xx_HAL_Driver/Src/stm32g0xx_hal_pwr_ex.c ****   * @brief  Enter Shutdown mode.
 845:Drivers/STM32G0xx_HAL_Driver/Src/stm32g0xx_hal_pwr_ex.c ****   * @note   In Shutdown mode, the PLL, the HSI, the LSI and the HSE oscillators are switched
 846:Drivers/STM32G0xx_HAL_Driver/Src/stm32g0xx_hal_pwr_ex.c ****   *         off. The voltage regulator is disabled and Vcore domain is powered off.
 847:Drivers/STM32G0xx_HAL_Driver/Src/stm32g0xx_hal_pwr_ex.c ****   *         SRAM and registers contents are lost except for registers in the Backup domain.
 848:Drivers/STM32G0xx_HAL_Driver/Src/stm32g0xx_hal_pwr_ex.c ****   *         The BOR is not available.
 849:Drivers/STM32G0xx_HAL_Driver/Src/stm32g0xx_hal_pwr_ex.c ****   * @note   The I/Os can be configured either with a pull-up or pull-down or can
 850:Drivers/STM32G0xx_HAL_Driver/Src/stm32g0xx_hal_pwr_ex.c ****   *         be kept in analog state.
 851:Drivers/STM32G0xx_HAL_Driver/Src/stm32g0xx_hal_pwr_ex.c ****   *         HAL_PWREx_EnableGPIOPullUp() and HAL_PWREx_EnableGPIOPullDown()
 852:Drivers/STM32G0xx_HAL_Driver/Src/stm32g0xx_hal_pwr_ex.c ****   *         respectively enable Pull Up and PullDown state.
 853:Drivers/STM32G0xx_HAL_Driver/Src/stm32g0xx_hal_pwr_ex.c ****   *         HAL_PWREx_DisableGPIOPullUp() & HAL_PWREx_DisableGPIOPullDown()
 854:Drivers/STM32G0xx_HAL_Driver/Src/stm32g0xx_hal_pwr_ex.c ****   *         disable the same. These states are effective in Standby mode only if
 855:Drivers/STM32G0xx_HAL_Driver/Src/stm32g0xx_hal_pwr_ex.c ****   *         APC bit is set through HAL_PWREx_EnablePullUpPullDownConfig() API.
 856:Drivers/STM32G0xx_HAL_Driver/Src/stm32g0xx_hal_pwr_ex.c ****   * @retval None
 857:Drivers/STM32G0xx_HAL_Driver/Src/stm32g0xx_hal_pwr_ex.c **** 
 858:Drivers/STM32G0xx_HAL_Driver/Src/stm32g0xx_hal_pwr_ex.c ****   * @retval None
 859:Drivers/STM32G0xx_HAL_Driver/Src/stm32g0xx_hal_pwr_ex.c ****   */
 860:Drivers/STM32G0xx_HAL_Driver/Src/stm32g0xx_hal_pwr_ex.c **** void HAL_PWREx_EnterSHUTDOWNMode(void)
 861:Drivers/STM32G0xx_HAL_Driver/Src/stm32g0xx_hal_pwr_ex.c **** {
 2136              		.loc 1 861 1
 2137              		.cfi_startproc
 2138              		@ args = 0, pretend = 0, frame = 0
 2139              		@ frame_needed = 1, uses_anonymous_args = 0
 2140 0000 80B5     		push	{r7, lr}
 2141              	.LCFI71:
 2142              		.cfi_def_cfa_offset 8
 2143              		.cfi_offset 7, -8
 2144              		.cfi_offset 14, -4
 2145 0002 00AF     		add	r7, sp, #0
 2146              	.LCFI72:
 2147              		.cfi_def_cfa_register 7
 862:Drivers/STM32G0xx_HAL_Driver/Src/stm32g0xx_hal_pwr_ex.c ****   /* Set Shutdown mode */
 863:Drivers/STM32G0xx_HAL_Driver/Src/stm32g0xx_hal_pwr_ex.c ****   MODIFY_REG(PWR->CR1, PWR_CR1_LPMS, PWR_LOWPOWERMODE_SHUTDOWN);
 2148              		.loc 1 863 3
 2149 0004 094B     		ldr	r3, .L153
 2150 0006 1B68     		ldr	r3, [r3]
 2151 0008 0722     		movs	r2, #7
 2152 000a 9343     		bics	r3, r2
 2153 000c 1A00     		movs	r2, r3
 2154 000e 074B     		ldr	r3, .L153
 2155 0010 0421     		movs	r1, #4
 2156 0012 0A43     		orrs	r2, r1
 2157 0014 1A60     		str	r2, [r3]
 864:Drivers/STM32G0xx_HAL_Driver/Src/stm32g0xx_hal_pwr_ex.c **** 
ARM GAS  C:\Users\ADMINI~1\AppData\Local\Temp\cc2Uyp30.s 			page 53


 865:Drivers/STM32G0xx_HAL_Driver/Src/stm32g0xx_hal_pwr_ex.c ****   /* Set SLEEPDEEP bit of Cortex System Control Register */
 866:Drivers/STM32G0xx_HAL_Driver/Src/stm32g0xx_hal_pwr_ex.c ****   SET_BIT(SCB->SCR, ((uint32_t)SCB_SCR_SLEEPDEEP_Msk));
 2158              		.loc 1 866 3
 2159 0016 064B     		ldr	r3, .L153+4
 2160 0018 1A69     		ldr	r2, [r3, #16]
 2161 001a 054B     		ldr	r3, .L153+4
 2162 001c 0421     		movs	r1, #4
 2163 001e 0A43     		orrs	r2, r1
 2164 0020 1A61     		str	r2, [r3, #16]
 867:Drivers/STM32G0xx_HAL_Driver/Src/stm32g0xx_hal_pwr_ex.c **** 
 868:Drivers/STM32G0xx_HAL_Driver/Src/stm32g0xx_hal_pwr_ex.c ****   /* This option is used to ensure that store operations are completed */
 869:Drivers/STM32G0xx_HAL_Driver/Src/stm32g0xx_hal_pwr_ex.c **** #if defined ( __CC_ARM)
 870:Drivers/STM32G0xx_HAL_Driver/Src/stm32g0xx_hal_pwr_ex.c ****   __force_stores();
 871:Drivers/STM32G0xx_HAL_Driver/Src/stm32g0xx_hal_pwr_ex.c **** #endif /* __CC_ARM */
 872:Drivers/STM32G0xx_HAL_Driver/Src/stm32g0xx_hal_pwr_ex.c **** 
 873:Drivers/STM32G0xx_HAL_Driver/Src/stm32g0xx_hal_pwr_ex.c ****   /* Request Wait For Interrupt */
 874:Drivers/STM32G0xx_HAL_Driver/Src/stm32g0xx_hal_pwr_ex.c ****   __WFI();
 2165              		.loc 1 874 3
 2166              		.syntax divided
 2167              	@ 874 "Drivers/STM32G0xx_HAL_Driver/Src/stm32g0xx_hal_pwr_ex.c" 1
 2168 0022 30BF     		wfi
 2169              	@ 0 "" 2
 875:Drivers/STM32G0xx_HAL_Driver/Src/stm32g0xx_hal_pwr_ex.c **** }
 2170              		.loc 1 875 1
 2171              		.thumb
 2172              		.syntax unified
 2173 0024 C046     		nop
 2174 0026 BD46     		mov	sp, r7
 2175              		@ sp needed
 2176 0028 80BD     		pop	{r7, pc}
 2177              	.L154:
 2178 002a C046     		.align	2
 2179              	.L153:
 2180 002c 00700040 		.word	1073770496
 2181 0030 00ED00E0 		.word	-536810240
 2182              		.cfi_endproc
 2183              	.LFE393:
 2185              		.section	.text.HAL_PWREx_PVD_PVM_IRQHandler,"ax",%progbits
 2186              		.align	1
 2187              		.global	HAL_PWREx_PVD_PVM_IRQHandler
 2188              		.syntax unified
 2189              		.code	16
 2190              		.thumb_func
 2192              	HAL_PWREx_PVD_PVM_IRQHandler:
 2193              	.LFB394:
 876:Drivers/STM32G0xx_HAL_Driver/Src/stm32g0xx_hal_pwr_ex.c **** #endif /* PWR_SHDW_SUPPORT */
 877:Drivers/STM32G0xx_HAL_Driver/Src/stm32g0xx_hal_pwr_ex.c **** 
 878:Drivers/STM32G0xx_HAL_Driver/Src/stm32g0xx_hal_pwr_ex.c **** #if defined(PWR_PVD_SUPPORT) && defined(PWR_PVM_SUPPORT)
 879:Drivers/STM32G0xx_HAL_Driver/Src/stm32g0xx_hal_pwr_ex.c **** /**
 880:Drivers/STM32G0xx_HAL_Driver/Src/stm32g0xx_hal_pwr_ex.c ****   * @brief  This function handles the PWR PVD interrupt request.
 881:Drivers/STM32G0xx_HAL_Driver/Src/stm32g0xx_hal_pwr_ex.c ****   * @note   This API should be called under the PVD_IRQHandler().
 882:Drivers/STM32G0xx_HAL_Driver/Src/stm32g0xx_hal_pwr_ex.c ****   * @retval None
 883:Drivers/STM32G0xx_HAL_Driver/Src/stm32g0xx_hal_pwr_ex.c ****   */
 884:Drivers/STM32G0xx_HAL_Driver/Src/stm32g0xx_hal_pwr_ex.c **** void HAL_PWREx_PVD_PVM_IRQHandler(void)
 885:Drivers/STM32G0xx_HAL_Driver/Src/stm32g0xx_hal_pwr_ex.c **** {
 2194              		.loc 1 885 1
 2195              		.cfi_startproc
ARM GAS  C:\Users\ADMINI~1\AppData\Local\Temp\cc2Uyp30.s 			page 54


 2196              		@ args = 0, pretend = 0, frame = 0
 2197              		@ frame_needed = 1, uses_anonymous_args = 0
 2198 0000 80B5     		push	{r7, lr}
 2199              	.LCFI73:
 2200              		.cfi_def_cfa_offset 8
 2201              		.cfi_offset 7, -8
 2202              		.cfi_offset 14, -4
 2203 0002 00AF     		add	r7, sp, #0
 2204              	.LCFI74:
 2205              		.cfi_def_cfa_register 7
 886:Drivers/STM32G0xx_HAL_Driver/Src/stm32g0xx_hal_pwr_ex.c ****   /* Check PWR PVD exti Rising flag */
 887:Drivers/STM32G0xx_HAL_Driver/Src/stm32g0xx_hal_pwr_ex.c ****   if (__HAL_PWR_PVD_EXTI_GET_RISING_FLAG() != 0x0U)
 2206              		.loc 1 887 7
 2207 0004 174B     		ldr	r3, .L161
 2208 0006 DA68     		ldr	r2, [r3, #12]
 2209 0008 8023     		movs	r3, #128
 2210 000a 5B02     		lsls	r3, r3, #9
 2211 000c 1340     		ands	r3, r2
 2212              		.loc 1 887 6
 2213 000e 05D0     		beq	.L156
 888:Drivers/STM32G0xx_HAL_Driver/Src/stm32g0xx_hal_pwr_ex.c ****   {
 889:Drivers/STM32G0xx_HAL_Driver/Src/stm32g0xx_hal_pwr_ex.c ****     /* Clear PVD exti pending bit */
 890:Drivers/STM32G0xx_HAL_Driver/Src/stm32g0xx_hal_pwr_ex.c ****     __HAL_PWR_PVD_EXTI_CLEAR_RISING_FLAG();
 2214              		.loc 1 890 5
 2215 0010 144B     		ldr	r3, .L161
 2216 0012 8022     		movs	r2, #128
 2217 0014 5202     		lsls	r2, r2, #9
 2218 0016 DA60     		str	r2, [r3, #12]
 891:Drivers/STM32G0xx_HAL_Driver/Src/stm32g0xx_hal_pwr_ex.c **** 
 892:Drivers/STM32G0xx_HAL_Driver/Src/stm32g0xx_hal_pwr_ex.c ****     /* PWR PVD interrupt rising user callback */
 893:Drivers/STM32G0xx_HAL_Driver/Src/stm32g0xx_hal_pwr_ex.c ****     HAL_PWREx_PVD_PVM_Rising_Callback();
 2219              		.loc 1 893 5
 2220 0018 FFF7FEFF 		bl	HAL_PWREx_PVD_PVM_Rising_Callback
 2221              	.L156:
 894:Drivers/STM32G0xx_HAL_Driver/Src/stm32g0xx_hal_pwr_ex.c ****   }
 895:Drivers/STM32G0xx_HAL_Driver/Src/stm32g0xx_hal_pwr_ex.c **** 
 896:Drivers/STM32G0xx_HAL_Driver/Src/stm32g0xx_hal_pwr_ex.c ****   /* Check PWR exti fallling flag */
 897:Drivers/STM32G0xx_HAL_Driver/Src/stm32g0xx_hal_pwr_ex.c ****   if (__HAL_PWR_PVD_EXTI_GET_FALLING_FLAG() != 0x0U)
 2222              		.loc 1 897 7
 2223 001c 114B     		ldr	r3, .L161
 2224 001e 1A69     		ldr	r2, [r3, #16]
 2225 0020 8023     		movs	r3, #128
 2226 0022 5B02     		lsls	r3, r3, #9
 2227 0024 1340     		ands	r3, r2
 2228              		.loc 1 897 6
 2229 0026 05D0     		beq	.L157
 898:Drivers/STM32G0xx_HAL_Driver/Src/stm32g0xx_hal_pwr_ex.c ****   {
 899:Drivers/STM32G0xx_HAL_Driver/Src/stm32g0xx_hal_pwr_ex.c ****     /* Clear PVD exti pending bit */
 900:Drivers/STM32G0xx_HAL_Driver/Src/stm32g0xx_hal_pwr_ex.c ****     __HAL_PWR_PVD_EXTI_CLEAR_FALLING_FLAG();
 2230              		.loc 1 900 5
 2231 0028 0E4B     		ldr	r3, .L161
 2232 002a 8022     		movs	r2, #128
 2233 002c 5202     		lsls	r2, r2, #9
 2234 002e 1A61     		str	r2, [r3, #16]
 901:Drivers/STM32G0xx_HAL_Driver/Src/stm32g0xx_hal_pwr_ex.c **** 
 902:Drivers/STM32G0xx_HAL_Driver/Src/stm32g0xx_hal_pwr_ex.c ****     /* PWR PVD interrupt falling user callback */
 903:Drivers/STM32G0xx_HAL_Driver/Src/stm32g0xx_hal_pwr_ex.c ****     HAL_PWREx_PVD_PVM_Falling_Callback();
ARM GAS  C:\Users\ADMINI~1\AppData\Local\Temp\cc2Uyp30.s 			page 55


 2235              		.loc 1 903 5
 2236 0030 FFF7FEFF 		bl	HAL_PWREx_PVD_PVM_Falling_Callback
 2237              	.L157:
 904:Drivers/STM32G0xx_HAL_Driver/Src/stm32g0xx_hal_pwr_ex.c ****   }
 905:Drivers/STM32G0xx_HAL_Driver/Src/stm32g0xx_hal_pwr_ex.c **** 
 906:Drivers/STM32G0xx_HAL_Driver/Src/stm32g0xx_hal_pwr_ex.c ****   /* Check PWR PVM exti Rising flag */
 907:Drivers/STM32G0xx_HAL_Driver/Src/stm32g0xx_hal_pwr_ex.c ****   if (__HAL_PWR_PVM_EXTI_GET_RISING_FLAG() != 0x0U)
 2238              		.loc 1 907 7
 2239 0034 0B4B     		ldr	r3, .L161
 2240 0036 DB6A     		ldr	r3, [r3, #44]
 2241 0038 0422     		movs	r2, #4
 2242 003a 1340     		ands	r3, r2
 2243              		.loc 1 907 6
 2244 003c 04D0     		beq	.L158
 908:Drivers/STM32G0xx_HAL_Driver/Src/stm32g0xx_hal_pwr_ex.c ****   {
 909:Drivers/STM32G0xx_HAL_Driver/Src/stm32g0xx_hal_pwr_ex.c ****     /* Clear PVM exti pending bit */
 910:Drivers/STM32G0xx_HAL_Driver/Src/stm32g0xx_hal_pwr_ex.c ****     __HAL_PWR_PVM_EXTI_CLEAR_RISING_FLAG();
 2245              		.loc 1 910 5
 2246 003e 094B     		ldr	r3, .L161
 2247 0040 0422     		movs	r2, #4
 2248 0042 DA62     		str	r2, [r3, #44]
 911:Drivers/STM32G0xx_HAL_Driver/Src/stm32g0xx_hal_pwr_ex.c **** 
 912:Drivers/STM32G0xx_HAL_Driver/Src/stm32g0xx_hal_pwr_ex.c ****     /* PWR PVD PVM interrupt rising user callback */
 913:Drivers/STM32G0xx_HAL_Driver/Src/stm32g0xx_hal_pwr_ex.c ****     HAL_PWREx_PVD_PVM_Rising_Callback();
 2249              		.loc 1 913 5
 2250 0044 FFF7FEFF 		bl	HAL_PWREx_PVD_PVM_Rising_Callback
 2251              	.L158:
 914:Drivers/STM32G0xx_HAL_Driver/Src/stm32g0xx_hal_pwr_ex.c ****   }
 915:Drivers/STM32G0xx_HAL_Driver/Src/stm32g0xx_hal_pwr_ex.c **** 
 916:Drivers/STM32G0xx_HAL_Driver/Src/stm32g0xx_hal_pwr_ex.c ****   /* Check PWR PVM exti fallling flag */
 917:Drivers/STM32G0xx_HAL_Driver/Src/stm32g0xx_hal_pwr_ex.c ****   if (__HAL_PWR_PVM_EXTI_GET_FALLING_FLAG() != 0x0U)
 2252              		.loc 1 917 7
 2253 0048 064B     		ldr	r3, .L161
 2254 004a 1B6B     		ldr	r3, [r3, #48]
 2255 004c 0422     		movs	r2, #4
 2256 004e 1340     		ands	r3, r2
 2257              		.loc 1 917 6
 2258 0050 04D0     		beq	.L160
 918:Drivers/STM32G0xx_HAL_Driver/Src/stm32g0xx_hal_pwr_ex.c ****   {
 919:Drivers/STM32G0xx_HAL_Driver/Src/stm32g0xx_hal_pwr_ex.c ****     /* Clear PVM exti pending bit */
 920:Drivers/STM32G0xx_HAL_Driver/Src/stm32g0xx_hal_pwr_ex.c ****     __HAL_PWR_PVM_EXTI_CLEAR_FALLING_FLAG();
 2259              		.loc 1 920 5
 2260 0052 044B     		ldr	r3, .L161
 2261 0054 0422     		movs	r2, #4
 2262 0056 1A63     		str	r2, [r3, #48]
 921:Drivers/STM32G0xx_HAL_Driver/Src/stm32g0xx_hal_pwr_ex.c **** 
 922:Drivers/STM32G0xx_HAL_Driver/Src/stm32g0xx_hal_pwr_ex.c ****     /* PWR PVM interrupt falling user callback */
 923:Drivers/STM32G0xx_HAL_Driver/Src/stm32g0xx_hal_pwr_ex.c ****     HAL_PWREx_PVD_PVM_Falling_Callback();
 2263              		.loc 1 923 5
 2264 0058 FFF7FEFF 		bl	HAL_PWREx_PVD_PVM_Falling_Callback
 2265              	.L160:
 924:Drivers/STM32G0xx_HAL_Driver/Src/stm32g0xx_hal_pwr_ex.c ****   }
 925:Drivers/STM32G0xx_HAL_Driver/Src/stm32g0xx_hal_pwr_ex.c **** }
 2266              		.loc 1 925 1
 2267 005c C046     		nop
 2268 005e BD46     		mov	sp, r7
 2269              		@ sp needed
ARM GAS  C:\Users\ADMINI~1\AppData\Local\Temp\cc2Uyp30.s 			page 56


 2270 0060 80BD     		pop	{r7, pc}
 2271              	.L162:
 2272 0062 C046     		.align	2
 2273              	.L161:
 2274 0064 00180240 		.word	1073879040
 2275              		.cfi_endproc
 2276              	.LFE394:
 2278              		.section	.text.HAL_PWREx_PVD_PVM_Rising_Callback,"ax",%progbits
 2279              		.align	1
 2280              		.weak	HAL_PWREx_PVD_PVM_Rising_Callback
 2281              		.syntax unified
 2282              		.code	16
 2283              		.thumb_func
 2285              	HAL_PWREx_PVD_PVM_Rising_Callback:
 2286              	.LFB395:
 926:Drivers/STM32G0xx_HAL_Driver/Src/stm32g0xx_hal_pwr_ex.c **** 
 927:Drivers/STM32G0xx_HAL_Driver/Src/stm32g0xx_hal_pwr_ex.c **** /**
 928:Drivers/STM32G0xx_HAL_Driver/Src/stm32g0xx_hal_pwr_ex.c ****   * @brief  PWR PVD interrupt rising callback
 929:Drivers/STM32G0xx_HAL_Driver/Src/stm32g0xx_hal_pwr_ex.c ****   * @retval None
 930:Drivers/STM32G0xx_HAL_Driver/Src/stm32g0xx_hal_pwr_ex.c ****   */
 931:Drivers/STM32G0xx_HAL_Driver/Src/stm32g0xx_hal_pwr_ex.c **** __weak void HAL_PWREx_PVD_PVM_Rising_Callback(void)
 932:Drivers/STM32G0xx_HAL_Driver/Src/stm32g0xx_hal_pwr_ex.c **** {
 2287              		.loc 1 932 1
 2288              		.cfi_startproc
 2289              		@ args = 0, pretend = 0, frame = 0
 2290              		@ frame_needed = 1, uses_anonymous_args = 0
 2291 0000 80B5     		push	{r7, lr}
 2292              	.LCFI75:
 2293              		.cfi_def_cfa_offset 8
 2294              		.cfi_offset 7, -8
 2295              		.cfi_offset 14, -4
 2296 0002 00AF     		add	r7, sp, #0
 2297              	.LCFI76:
 2298              		.cfi_def_cfa_register 7
 933:Drivers/STM32G0xx_HAL_Driver/Src/stm32g0xx_hal_pwr_ex.c ****   /* NOTE : This function should not be modified; when the callback is needed,
 934:Drivers/STM32G0xx_HAL_Driver/Src/stm32g0xx_hal_pwr_ex.c ****             the HAL_PWR_PVD_Rising_Callback can be implemented in the user file
 935:Drivers/STM32G0xx_HAL_Driver/Src/stm32g0xx_hal_pwr_ex.c ****   */
 936:Drivers/STM32G0xx_HAL_Driver/Src/stm32g0xx_hal_pwr_ex.c **** }
 2299              		.loc 1 936 1
 2300 0004 C046     		nop
 2301 0006 BD46     		mov	sp, r7
 2302              		@ sp needed
 2303 0008 80BD     		pop	{r7, pc}
 2304              		.cfi_endproc
 2305              	.LFE395:
 2307              		.section	.text.HAL_PWREx_PVD_PVM_Falling_Callback,"ax",%progbits
 2308              		.align	1
 2309              		.weak	HAL_PWREx_PVD_PVM_Falling_Callback
 2310              		.syntax unified
 2311              		.code	16
 2312              		.thumb_func
 2314              	HAL_PWREx_PVD_PVM_Falling_Callback:
 2315              	.LFB396:
 937:Drivers/STM32G0xx_HAL_Driver/Src/stm32g0xx_hal_pwr_ex.c **** 
 938:Drivers/STM32G0xx_HAL_Driver/Src/stm32g0xx_hal_pwr_ex.c **** /**
 939:Drivers/STM32G0xx_HAL_Driver/Src/stm32g0xx_hal_pwr_ex.c ****   * @brief  PWR PVD interrupt Falling callback
 940:Drivers/STM32G0xx_HAL_Driver/Src/stm32g0xx_hal_pwr_ex.c ****   * @retval None
ARM GAS  C:\Users\ADMINI~1\AppData\Local\Temp\cc2Uyp30.s 			page 57


 941:Drivers/STM32G0xx_HAL_Driver/Src/stm32g0xx_hal_pwr_ex.c ****   */
 942:Drivers/STM32G0xx_HAL_Driver/Src/stm32g0xx_hal_pwr_ex.c **** __weak void HAL_PWREx_PVD_PVM_Falling_Callback(void)
 943:Drivers/STM32G0xx_HAL_Driver/Src/stm32g0xx_hal_pwr_ex.c **** {
 2316              		.loc 1 943 1
 2317              		.cfi_startproc
 2318              		@ args = 0, pretend = 0, frame = 0
 2319              		@ frame_needed = 1, uses_anonymous_args = 0
 2320 0000 80B5     		push	{r7, lr}
 2321              	.LCFI77:
 2322              		.cfi_def_cfa_offset 8
 2323              		.cfi_offset 7, -8
 2324              		.cfi_offset 14, -4
 2325 0002 00AF     		add	r7, sp, #0
 2326              	.LCFI78:
 2327              		.cfi_def_cfa_register 7
 944:Drivers/STM32G0xx_HAL_Driver/Src/stm32g0xx_hal_pwr_ex.c ****   /* NOTE : This function should not be modified; when the callback is needed,
 945:Drivers/STM32G0xx_HAL_Driver/Src/stm32g0xx_hal_pwr_ex.c ****             the HAL_PWR_PVD_Falling_Callback can be implemented in the user file
 946:Drivers/STM32G0xx_HAL_Driver/Src/stm32g0xx_hal_pwr_ex.c ****   */
 947:Drivers/STM32G0xx_HAL_Driver/Src/stm32g0xx_hal_pwr_ex.c **** }
 2328              		.loc 1 947 1
 2329 0004 C046     		nop
 2330 0006 BD46     		mov	sp, r7
 2331              		@ sp needed
 2332 0008 80BD     		pop	{r7, pc}
 2333              		.cfi_endproc
 2334              	.LFE396:
 2336              		.text
 2337              	.Letext0:
 2338              		.file 2 "c:\\users\\administrator\\documents\\toolstm\\arm\\arm-none-eabi\\include\\machine\\_defa
 2339              		.file 3 "c:\\users\\administrator\\documents\\toolstm\\arm\\arm-none-eabi\\include\\sys\\_stdint.h
 2340              		.file 4 "Drivers/CMSIS/Include/core_cm0plus.h"
 2341              		.file 5 "Drivers/CMSIS/Device/ST/STM32G0xx/Include/stm32g0b1xx.h"
 2342              		.file 6 "Drivers/STM32G0xx_HAL_Driver/Inc/stm32g0xx_hal_def.h"
 2343              		.file 7 "Drivers/STM32G0xx_HAL_Driver/Inc/stm32g0xx_hal_pwr_ex.h"
 2344              		.file 8 "Drivers/STM32G0xx_HAL_Driver/Inc/stm32g0xx_ll_dma.h"
 2345              		.file 9 "Drivers/CMSIS/Device/ST/STM32G0xx/Include/system_stm32g0xx.h"
ARM GAS  C:\Users\ADMINI~1\AppData\Local\Temp\cc2Uyp30.s 			page 58

